Archive member included because of file (symbol)

c:/isis/application/toolchain/bin/../lib/gcc/arm-none-eabi/4.7.4/../../../../arm-none-eabi/lib\libc_s.a(lib_a-vfprintf_float.o)
                              (_printf_float)
c:/isis/application/toolchain/bin/../lib/gcc/arm-none-eabi/4.7.4/../../../../arm-none-eabi/lib\libc_s.a(lib_a-vfprintf_i.o)
                              c:/isis/application/toolchain/bin/../lib/gcc/arm-none-eabi/4.7.4/../../../../arm-none-eabi/lib\libc_s.a(lib_a-vfprintf_float.o) (_printf_common)
c:/isis/application/toolchain/bin/../lib/gcc/arm-none-eabi/4.7.4/../../../../arm-none-eabi/lib\libc_s.a(lib_a-vfscanf_float.o)
                              (_scanf_float)
c:/isis/application/toolchain/bin/../lib/gcc/arm-none-eabi/4.7.4/../../../../arm-none-eabi/lib\libc_s.a(lib_a-dtoa.o)
                              c:/isis/application/toolchain/bin/../lib/gcc/arm-none-eabi/4.7.4/../../../../arm-none-eabi/lib\libc_s.a(lib_a-vfprintf_float.o) (_dtoa_r)
c:/isis/application/toolchain/bin/../lib/gcc/arm-none-eabi/4.7.4/../../../../arm-none-eabi/lib\libc_s.a(lib_a-locale.o)
                              c:/isis/application/toolchain/bin/../lib/gcc/arm-none-eabi/4.7.4/../../../../arm-none-eabi/lib\libc_s.a(lib_a-vfprintf_float.o) (_localeconv_r)
c:/isis/application/toolchain/bin/../lib/gcc/arm-none-eabi/4.7.4/../../../../arm-none-eabi/lib\libc_s.a(lib_a-malloc.o)
                              c:/isis/application/toolchain/bin/../lib/gcc/arm-none-eabi/4.7.4/../../../../arm-none-eabi/lib\libc_s.a(lib_a-dtoa.o) (malloc)
c:/isis/application/toolchain/bin/../lib/gcc/arm-none-eabi/4.7.4/../../../../arm-none-eabi/lib\libc_s.a(lib_a-mallocr.o)
                              c:/isis/application/toolchain/bin/../lib/gcc/arm-none-eabi/4.7.4/../../../../arm-none-eabi/lib\libc_s.a(lib_a-malloc.o) (_malloc_r)
c:/isis/application/toolchain/bin/../lib/gcc/arm-none-eabi/4.7.4/../../../../arm-none-eabi/lib\libc_s.a(lib_a-memcpy.o)
                              c:/isis/application/toolchain/bin/../lib/gcc/arm-none-eabi/4.7.4/../../../../arm-none-eabi/lib\libc_s.a(lib_a-dtoa.o) (memcpy)
c:/isis/application/toolchain/bin/../lib/gcc/arm-none-eabi/4.7.4/../../../../arm-none-eabi/lib\libc_s.a(lib_a-mprec.o)
                              c:/isis/application/toolchain/bin/../lib/gcc/arm-none-eabi/4.7.4/../../../../arm-none-eabi/lib\libc_s.a(lib_a-dtoa.o) (_Balloc)
c:/isis/application/toolchain/bin/../lib/gcc/arm-none-eabi/4.7.4/../../../../arm-none-eabi/lib\libc_s.a(lib_a-s_fpclassify.o)
                              c:/isis/application/toolchain/bin/../lib/gcc/arm-none-eabi/4.7.4/../../../../arm-none-eabi/lib\libc_s.a(lib_a-vfprintf_float.o) (__fpclassifyd)
c:/isis/application/toolchain/bin/../lib/gcc/arm-none-eabi/4.7.4/../../../../arm-none-eabi/lib\libc_s.a(lib_a-sbrkr.o)
                              c:/isis/application/toolchain/bin/../lib/gcc/arm-none-eabi/4.7.4/../../../../arm-none-eabi/lib\libc_s.a(lib_a-mallocr.o) (_sbrk_r)
c:/isis/application/toolchain/bin/../lib/gcc/arm-none-eabi/4.7.4/../../../../arm-none-eabi/lib\libc_s.a(lib_a-sf_nan.o)
                              c:/isis/application/toolchain/bin/../lib/gcc/arm-none-eabi/4.7.4/../../../../arm-none-eabi/lib\libc_s.a(lib_a-vfscanf_float.o) (nanf)
c:/isis/application/toolchain/bin/../lib/gcc/arm-none-eabi/4.7.4/../../../../arm-none-eabi/lib\libc_s.a(lib_a-sprintf.o)
                              c:/isis/application/toolchain/bin/../lib/gcc/arm-none-eabi/4.7.4/../../../../arm-none-eabi/lib\libc_s.a(lib_a-vfscanf_float.o) (sprintf)
c:/isis/application/toolchain/bin/../lib/gcc/arm-none-eabi/4.7.4/../../../../arm-none-eabi/lib\libc_s.a(lib_a-strcmp.o)
                              c:/isis/application/toolchain/bin/../lib/gcc/arm-none-eabi/4.7.4/../../../../arm-none-eabi/lib\libc_s.a(lib_a-locale.o) (strcmp)
c:/isis/application/toolchain/bin/../lib/gcc/arm-none-eabi/4.7.4/../../../../arm-none-eabi/lib\libc_s.a(lib_a-strlen.o)
                              c:/isis/application/toolchain/bin/../lib/gcc/arm-none-eabi/4.7.4/../../../../arm-none-eabi/lib\libc_s.a(lib_a-vfprintf_float.o) (strlen)
c:/isis/application/toolchain/bin/../lib/gcc/arm-none-eabi/4.7.4/../../../../arm-none-eabi/lib\libc_s.a(lib_a-strtod.o)
                              c:/isis/application/toolchain/bin/../lib/gcc/arm-none-eabi/4.7.4/../../../../arm-none-eabi/lib\libc_s.a(lib_a-vfscanf_float.o) (_strtod_r)
c:/isis/application/toolchain/bin/../lib/gcc/arm-none-eabi/4.7.4/../../../../arm-none-eabi/lib\libc_s.a(lib_a-strtol.o)
                              c:/isis/application/toolchain/bin/../lib/gcc/arm-none-eabi/4.7.4/../../../../arm-none-eabi/lib\libc_s.a(lib_a-vfscanf_float.o) (_strtol_r)
c:/isis/application/toolchain/bin/../lib/gcc/arm-none-eabi/4.7.4/../../../../arm-none-eabi/lib\libc_s.a(lib_a-svfprintf.o)
                              c:/isis/application/toolchain/bin/../lib/gcc/arm-none-eabi/4.7.4/../../../../arm-none-eabi/lib\libc_s.a(lib_a-sprintf.o) (_svfprintf_r)
c:/isis/application/toolchain/bin/../lib/gcc/arm-none-eabi/4.7.4/../../../../arm-none-eabi/lib\libc_s.a(lib_a-callocr.o)
                              c:/isis/application/toolchain/bin/../lib/gcc/arm-none-eabi/4.7.4/../../../../arm-none-eabi/lib\libc_s.a(lib_a-mprec.o) (_calloc_r)
c:/isis/application/toolchain/bin/../lib/gcc/arm-none-eabi/4.7.4/../../../../arm-none-eabi/lib\libc_s.a(lib_a-ctype_.o)
                              c:/isis/application/toolchain/bin/../lib/gcc/arm-none-eabi/4.7.4/../../../../arm-none-eabi/lib\libc_s.a(lib_a-strtol.o) (__ctype_ptr__)
c:/isis/application/toolchain/bin/../lib/gcc/arm-none-eabi/4.7.4/../../../../arm-none-eabi/lib\libc_s.a(lib_a-freer.o)
                              c:/isis/application/toolchain/bin/../lib/gcc/arm-none-eabi/4.7.4/../../../../arm-none-eabi/lib\libc_s.a(lib_a-malloc.o) (_free_r)
c:/isis/application/toolchain/bin/../lib/gcc/arm-none-eabi/4.7.4/../../../../arm-none-eabi/lib\libc_s.a(lib_a-gdtoa-gethex.o)
                              c:/isis/application/toolchain/bin/../lib/gcc/arm-none-eabi/4.7.4/../../../../arm-none-eabi/lib\libc_s.a(lib_a-strtod.o) (__gethex)
c:/isis/application/toolchain/bin/../lib/gcc/arm-none-eabi/4.7.4/../../../../arm-none-eabi/lib\libc_s.a(lib_a-gdtoa-hexnan.o)
                              c:/isis/application/toolchain/bin/../lib/gcc/arm-none-eabi/4.7.4/../../../../arm-none-eabi/lib\libc_s.a(lib_a-strtod.o) (__hexnan)
c:/isis/application/toolchain/bin/../lib/gcc/arm-none-eabi/4.7.4/../../../../arm-none-eabi/lib\libc_s.a(lib_a-impure.o)
                              c:/isis/application/toolchain/bin/../lib/gcc/arm-none-eabi/4.7.4/../../../../arm-none-eabi/lib\libc_s.a(lib_a-locale.o) (_impure_ptr)
c:/isis/application/toolchain/bin/../lib/gcc/arm-none-eabi/4.7.4/../../../../arm-none-eabi/lib\libc_s.a(lib_a-memchr.o)
                              c:/isis/application/toolchain/bin/../lib/gcc/arm-none-eabi/4.7.4/../../../../arm-none-eabi/lib\libc_s.a(lib_a-svfprintf.o) (memchr)
c:/isis/application/toolchain/bin/../lib/gcc/arm-none-eabi/4.7.4/../../../../arm-none-eabi/lib\libc_s.a(lib_a-memmove.o)
                              c:/isis/application/toolchain/bin/../lib/gcc/arm-none-eabi/4.7.4/../../../../arm-none-eabi/lib\libc_s.a(lib_a-svfprintf.o) (memmove)
c:/isis/application/toolchain/bin/../lib/gcc/arm-none-eabi/4.7.4/../../../../arm-none-eabi/lib\libc_s.a(lib_a-memset.o)
                              c:/isis/application/toolchain/bin/../lib/gcc/arm-none-eabi/4.7.4/../../../../arm-none-eabi/lib\libc_s.a(lib_a-callocr.o) (memset)
c:/isis/application/toolchain/bin/../lib/gcc/arm-none-eabi/4.7.4/../../../../arm-none-eabi/lib\libc_s.a(lib_a-reallocr.o)
                              c:/isis/application/toolchain/bin/../lib/gcc/arm-none-eabi/4.7.4/../../../../arm-none-eabi/lib\libc_s.a(lib_a-svfprintf.o) (_realloc_r)
c:/isis/application/toolchain/bin/../lib/gcc/arm-none-eabi/4.7.4/../../../../arm-none-eabi/lib\libc_s.a(lib_a-reent.o)
                              c:/isis/application/toolchain/bin/../lib/gcc/arm-none-eabi/4.7.4/../../../../arm-none-eabi/lib\libc_s.a(lib_a-sbrkr.o) (errno)
c:/isis/application/toolchain/bin/../lib/gcc/arm-none-eabi/4.7.4/../../../../arm-none-eabi/lib\libc_s.a(lib_a-strncmp.o)
                              c:/isis/application/toolchain/bin/../lib/gcc/arm-none-eabi/4.7.4/../../../../arm-none-eabi/lib\libc_s.a(lib_a-strtod.o) (strncmp)
c:/isis/application/toolchain/bin/../lib/gcc/arm-none-eabi/4.7.4/../../../../arm-none-eabi/lib\libc_s.a(lib_a-msizer.o)
                              c:/isis/application/toolchain/bin/../lib/gcc/arm-none-eabi/4.7.4/../../../../arm-none-eabi/lib\libc_s.a(lib_a-reallocr.o) (_malloc_usable_size_r)
D:/Internship 2018/OBC Projects/SecondProject/satellite-subsystems/demo/..//satellite-subsystems/lib\libSatelliteSubsystemsD.a(GomEPS.o)
                              ./src/Demos/GomEPSdemo.o (GomEpsInitialize)
D:/Internship 2018/OBC Projects/SecondProject/satellite-subsystems/demo/..//satellite-subsystems/lib\libSatelliteSubsystemsD.a(IsisAntS.o)
                              ./src/Demos/IsisAntSdemo.o (IsisAntS_initialize)
D:/Internship 2018/OBC Projects/SecondProject/satellite-subsystems/demo/..//satellite-subsystems/lib\libSatelliteSubsystemsD.a(IsisEPS.o)
                              ./src/Demos/IsisEPSdemo.o (IsisEPS_initialize)
D:/Internship 2018/OBC Projects/SecondProject/satellite-subsystems/demo/..//satellite-subsystems/lib\libSatelliteSubsystemsD.a(IsisMTQv1.o)
                              ./src/Demos/IsisMTQv1demo.o (isisMTQv1_initialize)
D:/Internship 2018/OBC Projects/SecondProject/satellite-subsystems/demo/..//satellite-subsystems/lib\libSatelliteSubsystemsD.a(IsisMTQv2.o)
                              ./src/Demos/IsisMTQv2demo.o (IsisMTQv2_initialize)
D:/Internship 2018/OBC Projects/SecondProject/satellite-subsystems/demo/..//satellite-subsystems/lib\libSatelliteSubsystemsD.a(IsisSolarPanel.o)
                              ./src/Demos/IsisSPdemo.o (IsisSolarPanel_getTemperature)
D:/Internship 2018/OBC Projects/SecondProject/satellite-subsystems/demo/..//satellite-subsystems/lib\libSatelliteSubsystemsD.a(IsisSolarPanelv2.o)
                              ./src/Demos/IsisSPv2demo.o (IsisSolarPanelv2_initialize)
D:/Internship 2018/OBC Projects/SecondProject/satellite-subsystems/demo/..//satellite-subsystems/lib\libSatelliteSubsystemsD.a(IsisTRXUV.o)
                              ./src/Demos/IsisTRXUVdemo.o (IsisTrxuv_initialize)
D:/Internship 2018/OBC Projects/SecondProject/satellite-subsystems/demo/..//satellite-subsystems/lib\libSatelliteSubsystemsD.a(IsisTRXVU.o)
                              ./src/Demos/IsisTRXVUdemo.o (IsisTrxvu_initialize)
D:/Internship 2018/OBC Projects/SecondProject/satellite-subsystems/demo/..//satellite-subsystems/lib\libSatelliteSubsystemsD.a(IsisTxS.o)
                              ./src/Demos/IsisTxSdemo.o (IsisTxsInitialize)
D:/Internship 2018/OBC Projects/SecondProject/satellite-subsystems/demo/..//satellite-subsystems/lib\libSatelliteSubsystemsD.a(version.o)
                              ./src/main.o (SatelliteSubsystemsCompileDate)
D:/Internship 2018/OBC Projects/SecondProject/satellite-subsystems/demo/..//satellite-subsystems/lib\libSatelliteSubsystemsD.a(IsisTRXCommon.o)
                              D:/Internship 2018/OBC Projects/SecondProject/satellite-subsystems/demo/..//satellite-subsystems/lib\libSatelliteSubsystemsD.a(IsisTRXUV.o) (IsisTrxCommon_componentReset)
c:/isis/application/toolchain/bin/../lib/gcc/arm-none-eabi/4.7.4/../../../../arm-none-eabi/lib\libm.a(lib_a-w_exp.o)
                              ./src/Demos/common.o (exp)
c:/isis/application/toolchain/bin/../lib/gcc/arm-none-eabi/4.7.4/../../../../arm-none-eabi/lib\libm.a(lib_a-e_exp.o)
                              c:/isis/application/toolchain/bin/../lib/gcc/arm-none-eabi/4.7.4/../../../../arm-none-eabi/lib\libm.a(lib_a-w_exp.o) (__ieee754_exp)
c:/isis/application/toolchain/bin/../lib/gcc/arm-none-eabi/4.7.4/../../../../arm-none-eabi/lib\libm.a(lib_a-s_finite.o)
                              c:/isis/application/toolchain/bin/../lib/gcc/arm-none-eabi/4.7.4/../../../../arm-none-eabi/lib\libm.a(lib_a-w_exp.o) (finite)
c:/isis/application/toolchain/bin/../lib/gcc/arm-none-eabi/4.7.4/../../../../arm-none-eabi/lib\libm.a(lib_a-s_lib_ver.o)
                              c:/isis/application/toolchain/bin/../lib/gcc/arm-none-eabi/4.7.4/../../../../arm-none-eabi/lib\libm.a(lib_a-w_exp.o) (__fdlib_version)
c:/isis/application/toolchain/bin/../lib/gcc/arm-none-eabi/4.7.4/../../../../arm-none-eabi/lib\libm.a(lib_a-s_matherr.o)
                              c:/isis/application/toolchain/bin/../lib/gcc/arm-none-eabi/4.7.4/../../../../arm-none-eabi/lib\libm.a(lib_a-w_exp.o) (matherr)
D:/Internship 2018/OBC Projects/SecondProject/satellite-subsystems/demo/../..//hal/hal/lib\libHALD.a(I2C.o)
                              D:/Internship 2018/OBC Projects/SecondProject/satellite-subsystems/demo/..//satellite-subsystems/lib\libSatelliteSubsystemsD.a(GomEPS.o) (I2C_writeRead)
D:/Internship 2018/OBC Projects/SecondProject/satellite-subsystems/demo/../..//hal/hal/lib\libHALD.a(LED.o)
                              ./src/main.o (LED_start)
D:/Internship 2018/OBC Projects/SecondProject/satellite-subsystems/demo/../..//hal/hal/lib\libHALD.a(SPI.o)
                              ./src/main.o (SPI_start)
D:/Internship 2018/OBC Projects/SecondProject/satellite-subsystems/demo/../..//hal/hal/lib\libHALD.a(WatchDogTimerNoOS.o)
                              ./src/main.o (WDT_start)
D:/Internship 2018/OBC Projects/SecondProject/satellite-subsystems/demo/../..//hal/hal/lib\libHALD.a(WatchDogTimerOS.o)
                              ./src/main.o (WDT_startWatchdogKickTask)
D:/Internship 2018/OBC Projects/SecondProject/satellite-subsystems/demo/../..//hal/hal/lib\libHALD.a(util.o)
                              ./src/Demos/GomEPSdemo.o (UTIL_DbguGetIntegerMinMax)
D:/Internship 2018/OBC Projects/SecondProject/satellite-subsystems/demo/../..//hal/hal/lib\libHALD.a(version.o)
                              ./src/main.o (HalCompileDate)
D:/Internship 2018/OBC Projects/SecondProject/satellite-subsystems/demo/../..//hal/freertos/lib\libFreeRTOSD.a(queue.o)
                              D:/Internship 2018/OBC Projects/SecondProject/satellite-subsystems/demo/../..//hal/hal/lib\libHALD.a(I2C.o) (xQueueGenericCreate)
D:/Internship 2018/OBC Projects/SecondProject/satellite-subsystems/demo/../..//hal/freertos/lib\libFreeRTOSD.a(tasks.o)
                              ./src/main.o (xTaskGenericCreate)
D:/Internship 2018/OBC Projects/SecondProject/satellite-subsystems/demo/../..//hal/freertos/lib\libFreeRTOSD.a(hooks.o)
                              D:/Internship 2018/OBC Projects/SecondProject/satellite-subsystems/demo/../..//hal/freertos/lib\libFreeRTOSD.a(tasks.o) (vApplicationStackOverflowHook)
D:/Internship 2018/OBC Projects/SecondProject/satellite-subsystems/demo/../..//hal/freertos/lib\libFreeRTOSD.a(standardMemMang.o)
                              D:/Internship 2018/OBC Projects/SecondProject/satellite-subsystems/demo/../..//hal/freertos/lib\libFreeRTOSD.a(queue.o) (pvPortMalloc)
D:/Internship 2018/OBC Projects/SecondProject/satellite-subsystems/demo/../..//hal/freertos/lib\libFreeRTOSD.a(port.o)
                              D:/Internship 2018/OBC Projects/SecondProject/satellite-subsystems/demo/../..//hal/freertos/lib\libFreeRTOSD.a(tasks.o) (pxPortInitialiseStack)
D:/Internship 2018/OBC Projects/SecondProject/satellite-subsystems/demo/../..//hal/freertos/lib\libFreeRTOSD.a(list.o)
                              D:/Internship 2018/OBC Projects/SecondProject/satellite-subsystems/demo/../..//hal/freertos/lib\libFreeRTOSD.a(queue.o) (vListInitialise)
D:/Internship 2018/OBC Projects/SecondProject/satellite-subsystems/demo/../..//hal/at91/lib\libAt91D.a(syscalls.o)
                              c:/isis/application/toolchain/bin/../lib/gcc/arm-none-eabi/4.7.4/../../../../arm-none-eabi/lib\libc_s.a(lib_a-sbrkr.o) (_sbrk)
D:/Internship 2018/OBC Projects/SecondProject/satellite-subsystems/demo/../..//hal/at91/lib\libAt91D.a(aic.o)
                              D:/Internship 2018/OBC Projects/SecondProject/satellite-subsystems/demo/../..//hal/hal/lib\libHALD.a(I2C.o) (AIC_ConfigureIT)
D:/Internship 2018/OBC Projects/SecondProject/satellite-subsystems/demo/../..//hal/at91/lib\libAt91D.a(cp15.o)
                              ./src/main.o (CP15_Enable_I_Cache)
D:/Internship 2018/OBC Projects/SecondProject/satellite-subsystems/demo/../..//hal/at91/lib\libAt91D.a(dbgu.o)
                              ./src/main.o (DBGU_Configure)
D:/Internship 2018/OBC Projects/SecondProject/satellite-subsystems/demo/../..//hal/at91/lib\libAt91D.a(pio.o)
                              ./src/main.o (PIO_Configure)
D:/Internship 2018/OBC Projects/SecondProject/satellite-subsystems/demo/../..//hal/at91/lib\libAt91D.a(pit.o)
                              D:/Internship 2018/OBC Projects/SecondProject/satellite-subsystems/demo/../..//hal/freertos/lib\libFreeRTOSD.a(port.o) (PIT_Init)
D:/Internship 2018/OBC Projects/SecondProject/satellite-subsystems/demo/../..//hal/at91/lib\libAt91D.a(pmc.o)
                              D:/Internship 2018/OBC Projects/SecondProject/satellite-subsystems/demo/../..//hal/hal/lib\libHALD.a(I2C.o) (PMC_EnablePeripheral)
D:/Internship 2018/OBC Projects/SecondProject/satellite-subsystems/demo/../..//hal/at91/lib\libAt91D.a(spi_at91.o)
                              D:/Internship 2018/OBC Projects/SecondProject/satellite-subsystems/demo/../..//hal/hal/lib\libHALD.a(SPI.o) (SPI_Enable)
D:/Internship 2018/OBC Projects/SecondProject/satellite-subsystems/demo/../..//hal/at91/lib\libAt91D.a(twi_at91.o)
                              D:/Internship 2018/OBC Projects/SecondProject/satellite-subsystems/demo/../..//hal/hal/lib\libHALD.a(I2C.o) (TWI_ConfigureMaster)
D:/Internship 2018/OBC Projects/SecondProject/satellite-subsystems/demo/../..//hal/at91/lib\libAt91D.a(ExitHandler.o)
                              D:/Internship 2018/OBC Projects/SecondProject/satellite-subsystems/demo/../..//hal/freertos/lib\libFreeRTOSD.a(hooks.o) (restart)
D:/Internship 2018/OBC Projects/SecondProject/satellite-subsystems/demo/../..//hal/at91/lib\libAt91D.a(board_cstartup.o)
                              (entry)
D:/Internship 2018/OBC Projects/SecondProject/satellite-subsystems/demo/../..//hal/at91/lib\libAt91D.a(cp15_asm.o)
                              D:/Internship 2018/OBC Projects/SecondProject/satellite-subsystems/demo/../..//hal/at91/lib\libAt91D.a(cp15.o) (_readControlRegister)
D:/Internship 2018/OBC Projects/SecondProject/satellite-subsystems/demo/../..//hal/at91/lib\libAt91D.a(board_lowlevel.o)
                              D:/Internship 2018/OBC Projects/SecondProject/satellite-subsystems/demo/../..//hal/at91/lib\libAt91D.a(board_cstartup.o) (LowLevelInit)
D:/Internship 2018/OBC Projects/SecondProject/satellite-subsystems/demo/../..//hal/at91/lib\libAt91D.a(board_memories.o)
                              D:/Internship 2018/OBC Projects/SecondProject/satellite-subsystems/demo/../..//hal/at91/lib\libAt91D.a(board_lowlevel.o) (BOARD_RemapRam)
c:/isis/application/toolchain/bin/../lib/gcc/arm-none-eabi/4.7.4\libgcc.a(_udivsi3.o)
                              c:/isis/application/toolchain/bin/../lib/gcc/arm-none-eabi/4.7.4/../../../../arm-none-eabi/lib\libc_s.a(lib_a-vfprintf_i.o) (__aeabi_uidiv)
c:/isis/application/toolchain/bin/../lib/gcc/arm-none-eabi/4.7.4\libgcc.a(_divsi3.o)
                              c:/isis/application/toolchain/bin/../lib/gcc/arm-none-eabi/4.7.4/../../../../arm-none-eabi/lib\libc_s.a(lib_a-vfprintf_float.o) (__aeabi_idiv)
c:/isis/application/toolchain/bin/../lib/gcc/arm-none-eabi/4.7.4\libgcc.a(_dvmd_tls.o)
                              c:/isis/application/toolchain/bin/../lib/gcc/arm-none-eabi/4.7.4\libgcc.a(_udivsi3.o) (__aeabi_idiv0)
c:/isis/application/toolchain/bin/../lib/gcc/arm-none-eabi/4.7.4\libgcc.a(_arm_addsubdf3.o)
                              c:/isis/application/toolchain/bin/../lib/gcc/arm-none-eabi/4.7.4/../../../../arm-none-eabi/lib\libc_s.a(lib_a-dtoa.o) (__aeabi_dsub)
c:/isis/application/toolchain/bin/../lib/gcc/arm-none-eabi/4.7.4\libgcc.a(_arm_muldivdf3.o)
                              c:/isis/application/toolchain/bin/../lib/gcc/arm-none-eabi/4.7.4/../../../../arm-none-eabi/lib\libc_s.a(lib_a-dtoa.o) (__aeabi_dmul)
c:/isis/application/toolchain/bin/../lib/gcc/arm-none-eabi/4.7.4\libgcc.a(_arm_cmpdf2.o)
                              c:/isis/application/toolchain/bin/../lib/gcc/arm-none-eabi/4.7.4/../../../../arm-none-eabi/lib\libc_s.a(lib_a-vfprintf_float.o) (__aeabi_dcmpeq)
c:/isis/application/toolchain/bin/../lib/gcc/arm-none-eabi/4.7.4\libgcc.a(_arm_fixdfsi.o)
                              c:/isis/application/toolchain/bin/../lib/gcc/arm-none-eabi/4.7.4/../../../../arm-none-eabi/lib\libc_s.a(lib_a-dtoa.o) (__aeabi_d2iz)
c:/isis/application/toolchain/bin/../lib/gcc/arm-none-eabi/4.7.4\libgcc.a(_arm_fixunsdfsi.o)
                              c:/isis/application/toolchain/bin/../lib/gcc/arm-none-eabi/4.7.4/../../../../arm-none-eabi/lib\libc_s.a(lib_a-strtod.o) (__aeabi_d2uiz)
c:/isis/application/toolchain/bin/../lib/gcc/arm-none-eabi/4.7.4\libgcc.a(_arm_truncdfsf2.o)
                              c:/isis/application/toolchain/bin/../lib/gcc/arm-none-eabi/4.7.4/../../../../arm-none-eabi/lib\libc_s.a(lib_a-vfscanf_float.o) (__aeabi_d2f)
c:/isis/application/toolchain/bin/../lib/gcc/arm-none-eabi/4.7.4\libgcc.a(_arm_addsubsf3.o)
                              D:/Internship 2018/OBC Projects/SecondProject/satellite-subsystems/demo/..//satellite-subsystems/lib\libSatelliteSubsystemsD.a(IsisTRXUV.o) (__aeabi_fadd)
c:/isis/application/toolchain/bin/../lib/gcc/arm-none-eabi/4.7.4\libgcc.a(_arm_muldivsf3.o)
                              ./src/Demos/IsisSPdemo.o (__aeabi_fmul)
c:/isis/application/toolchain/bin/../lib/gcc/arm-none-eabi/4.7.4\libgcc.a(_arm_fixunssfsi.o)
                              D:/Internship 2018/OBC Projects/SecondProject/satellite-subsystems/demo/..//satellite-subsystems/lib\libSatelliteSubsystemsD.a(IsisTRXUV.o) (__aeabi_f2uiz)
c:/isis/application/toolchain/bin/../lib/gcc/arm-none-eabi/4.7.4/../../../../arm-none-eabi/lib\libc_s.a(lib_a-errno.o)
                              c:/isis/application/toolchain/bin/../lib/gcc/arm-none-eabi/4.7.4/../../../../arm-none-eabi/lib\libm.a(lib_a-w_exp.o) (__errno)
c:/isis/application/toolchain/bin/../lib/gcc/arm-none-eabi/4.7.4/../../../../arm-none-eabi/lib\libc_s.a(lib_a-printf.o)
                              ./src/Demos/GomEPSdemo.o (printf)
c:/isis/application/toolchain/bin/../lib/gcc/arm-none-eabi/4.7.4/../../../../arm-none-eabi/lib\libc_s.a(lib_a-puts.o)
                              ./src/Demos/GomEPSdemo.o (puts)
c:/isis/application/toolchain/bin/../lib/gcc/arm-none-eabi/4.7.4/../../../../arm-none-eabi/lib\libc_s.a(lib_a-snprintf.o)
                              ./src/Demos/IsisMTQv2demo.o (snprintf)
c:/isis/application/toolchain/bin/../lib/gcc/arm-none-eabi/4.7.4/../../../../arm-none-eabi/lib\libc_s.a(lib_a-vfprintf.o)
                              c:/isis/application/toolchain/bin/../lib/gcc/arm-none-eabi/4.7.4/../../../../arm-none-eabi/lib\libc_s.a(lib_a-printf.o) (_vfprintf_r)
c:/isis/application/toolchain/bin/../lib/gcc/arm-none-eabi/4.7.4/../../../../arm-none-eabi/lib\libc_s.a(lib_a-wbuf.o)
                              c:/isis/application/toolchain/bin/../lib/gcc/arm-none-eabi/4.7.4/../../../../arm-none-eabi/lib\libc_s.a(lib_a-vfprintf.o) (__swbuf_r)
c:/isis/application/toolchain/bin/../lib/gcc/arm-none-eabi/4.7.4/../../../../arm-none-eabi/lib\libc_s.a(lib_a-wsetup.o)
                              c:/isis/application/toolchain/bin/../lib/gcc/arm-none-eabi/4.7.4/../../../../arm-none-eabi/lib\libc_s.a(lib_a-vfprintf.o) (__swsetup_r)
c:/isis/application/toolchain/bin/../lib/gcc/arm-none-eabi/4.7.4/../../../../arm-none-eabi/lib\libc_s.a(lib_a-fflush.o)
                              c:/isis/application/toolchain/bin/../lib/gcc/arm-none-eabi/4.7.4/../../../../arm-none-eabi/lib\libc_s.a(lib_a-wbuf.o) (_fflush_r)
c:/isis/application/toolchain/bin/../lib/gcc/arm-none-eabi/4.7.4/../../../../arm-none-eabi/lib\libc_s.a(lib_a-findfp.o)
                              c:/isis/application/toolchain/bin/../lib/gcc/arm-none-eabi/4.7.4/../../../../arm-none-eabi/lib\libc_s.a(lib_a-printf.o) (__sinit)
c:/isis/application/toolchain/bin/../lib/gcc/arm-none-eabi/4.7.4/../../../../arm-none-eabi/lib\libc_s.a(lib_a-fputwc.o)
                              c:/isis/application/toolchain/bin/../lib/gcc/arm-none-eabi/4.7.4/../../../../arm-none-eabi/lib\libc_s.a(lib_a-vfprintf.o) (_fputwc_r)
c:/isis/application/toolchain/bin/../lib/gcc/arm-none-eabi/4.7.4/../../../../arm-none-eabi/lib\libc_s.a(lib_a-fvwrite.o)
                              c:/isis/application/toolchain/bin/../lib/gcc/arm-none-eabi/4.7.4/../../../../arm-none-eabi/lib\libc_s.a(lib_a-vfprintf.o) (__sfvwrite_r)
c:/isis/application/toolchain/bin/../lib/gcc/arm-none-eabi/4.7.4/../../../../arm-none-eabi/lib\libc_s.a(lib_a-fwalk.o)
                              c:/isis/application/toolchain/bin/../lib/gcc/arm-none-eabi/4.7.4/../../../../arm-none-eabi/lib\libc_s.a(lib_a-findfp.o) (_fwalk)
c:/isis/application/toolchain/bin/../lib/gcc/arm-none-eabi/4.7.4/../../../../arm-none-eabi/lib\libc_s.a(lib_a-makebuf.o)
                              c:/isis/application/toolchain/bin/../lib/gcc/arm-none-eabi/4.7.4/../../../../arm-none-eabi/lib\libc_s.a(lib_a-wsetup.o) (__smakebuf_r)
c:/isis/application/toolchain/bin/../lib/gcc/arm-none-eabi/4.7.4/../../../../arm-none-eabi/lib\libc_s.a(lib_a-putc.o)
                              c:/isis/application/toolchain/bin/../lib/gcc/arm-none-eabi/4.7.4/../../../../arm-none-eabi/lib\libc_s.a(lib_a-puts.o) (_putc_r)
c:/isis/application/toolchain/bin/../lib/gcc/arm-none-eabi/4.7.4/../../../../arm-none-eabi/lib\libc_s.a(lib_a-stdio.o)
                              c:/isis/application/toolchain/bin/../lib/gcc/arm-none-eabi/4.7.4/../../../../arm-none-eabi/lib\libc_s.a(lib_a-findfp.o) (__sread)
c:/isis/application/toolchain/bin/../lib/gcc/arm-none-eabi/4.7.4/../../../../arm-none-eabi/lib\libc_s.a(lib_a-wcrtomb.o)
                              c:/isis/application/toolchain/bin/../lib/gcc/arm-none-eabi/4.7.4/../../../../arm-none-eabi/lib\libc_s.a(lib_a-fputwc.o) (_wcrtomb_r)
c:/isis/application/toolchain/bin/../lib/gcc/arm-none-eabi/4.7.4/../../../../arm-none-eabi/lib\libc_s.a(lib_a-wctomb_r.o)
                              c:/isis/application/toolchain/bin/../lib/gcc/arm-none-eabi/4.7.4/../../../../arm-none-eabi/lib\libc_s.a(lib_a-wcrtomb.o) (__wctomb)
c:/isis/application/toolchain/bin/../lib/gcc/arm-none-eabi/4.7.4/../../../../arm-none-eabi/lib\libc_s.a(lib_a-writer.o)
                              c:/isis/application/toolchain/bin/../lib/gcc/arm-none-eabi/4.7.4/../../../../arm-none-eabi/lib\libc_s.a(lib_a-stdio.o) (_write_r)
c:/isis/application/toolchain/bin/../lib/gcc/arm-none-eabi/4.7.4/../../../../arm-none-eabi/lib\libc_s.a(lib_a-closer.o)
                              c:/isis/application/toolchain/bin/../lib/gcc/arm-none-eabi/4.7.4/../../../../arm-none-eabi/lib\libc_s.a(lib_a-stdio.o) (_close_r)
c:/isis/application/toolchain/bin/../lib/gcc/arm-none-eabi/4.7.4/../../../../arm-none-eabi/lib\libc_s.a(lib_a-fstatr.o)
                              c:/isis/application/toolchain/bin/../lib/gcc/arm-none-eabi/4.7.4/../../../../arm-none-eabi/lib\libc_s.a(lib_a-makebuf.o) (_fstat_r)
c:/isis/application/toolchain/bin/../lib/gcc/arm-none-eabi/4.7.4/../../../../arm-none-eabi/lib\libc_s.a(lib_a-isattyr.o)
                              c:/isis/application/toolchain/bin/../lib/gcc/arm-none-eabi/4.7.4/../../../../arm-none-eabi/lib\libc_s.a(lib_a-makebuf.o) (_isatty_r)
c:/isis/application/toolchain/bin/../lib/gcc/arm-none-eabi/4.7.4/../../../../arm-none-eabi/lib\libc_s.a(lib_a-lseekr.o)
                              c:/isis/application/toolchain/bin/../lib/gcc/arm-none-eabi/4.7.4/../../../../arm-none-eabi/lib\libc_s.a(lib_a-stdio.o) (_lseek_r)
c:/isis/application/toolchain/bin/../lib/gcc/arm-none-eabi/4.7.4/../../../../arm-none-eabi/lib\libc_s.a(lib_a-readr.o)
                              c:/isis/application/toolchain/bin/../lib/gcc/arm-none-eabi/4.7.4/../../../../arm-none-eabi/lib\libc_s.a(lib_a-stdio.o) (_read_r)

Allocating common symbols
Common symbol       size              file

errno               0x4               c:/isis/application/toolchain/bin/../lib/gcc/arm-none-eabi/4.7.4/../../../../arm-none-eabi/lib\libc_s.a(lib_a-reent.o)
xQueueRegistry      0x100             D:/Internship 2018/OBC Projects/SecondProject/satellite-subsystems/demo/../..//hal/freertos/lib\libFreeRTOSD.a(queue.o)
__hexdig            0x100             c:/isis/application/toolchain/bin/../lib/gcc/arm-none-eabi/4.7.4/../../../../arm-none-eabi/lib\libc_s.a(lib_a-gdtoa-gethex.o)

Discarded input sections

 .text          0x00000000        0x0 c:/isis/application/toolchain/bin/../lib/gcc/arm-none-eabi/4.7.4/../../../../arm-none-eabi/lib\libc_s.a(lib_a-vfprintf_float.o)
 .data          0x00000000        0x0 c:/isis/application/toolchain/bin/../lib/gcc/arm-none-eabi/4.7.4/../../../../arm-none-eabi/lib\libc_s.a(lib_a-vfprintf_float.o)
 .bss           0x00000000        0x0 c:/isis/application/toolchain/bin/../lib/gcc/arm-none-eabi/4.7.4/../../../../arm-none-eabi/lib\libc_s.a(lib_a-vfprintf_float.o)
 .text          0x00000000        0x0 c:/isis/application/toolchain/bin/../lib/gcc/arm-none-eabi/4.7.4/../../../../arm-none-eabi/lib\libc_s.a(lib_a-vfprintf_i.o)
 .data          0x00000000        0x0 c:/isis/application/toolchain/bin/../lib/gcc/arm-none-eabi/4.7.4/../../../../arm-none-eabi/lib\libc_s.a(lib_a-vfprintf_i.o)
 .bss           0x00000000        0x0 c:/isis/application/toolchain/bin/../lib/gcc/arm-none-eabi/4.7.4/../../../../arm-none-eabi/lib\libc_s.a(lib_a-vfprintf_i.o)
 .text          0x00000000        0x0 c:/isis/application/toolchain/bin/../lib/gcc/arm-none-eabi/4.7.4/../../../../arm-none-eabi/lib\libc_s.a(lib_a-vfscanf_float.o)
 .data          0x00000000        0x0 c:/isis/application/toolchain/bin/../lib/gcc/arm-none-eabi/4.7.4/../../../../arm-none-eabi/lib\libc_s.a(lib_a-vfscanf_float.o)
 .bss           0x00000000        0x0 c:/isis/application/toolchain/bin/../lib/gcc/arm-none-eabi/4.7.4/../../../../arm-none-eabi/lib\libc_s.a(lib_a-vfscanf_float.o)
 .text          0x00000000        0x0 c:/isis/application/toolchain/bin/../lib/gcc/arm-none-eabi/4.7.4/../../../../arm-none-eabi/lib\libc_s.a(lib_a-dtoa.o)
 .data          0x00000000        0x0 c:/isis/application/toolchain/bin/../lib/gcc/arm-none-eabi/4.7.4/../../../../arm-none-eabi/lib\libc_s.a(lib_a-dtoa.o)
 .bss           0x00000000        0x0 c:/isis/application/toolchain/bin/../lib/gcc/arm-none-eabi/4.7.4/../../../../arm-none-eabi/lib\libc_s.a(lib_a-dtoa.o)
 .text          0x00000000        0x0 c:/isis/application/toolchain/bin/../lib/gcc/arm-none-eabi/4.7.4/../../../../arm-none-eabi/lib\libc_s.a(lib_a-locale.o)
 .data          0x00000000        0x0 c:/isis/application/toolchain/bin/../lib/gcc/arm-none-eabi/4.7.4/../../../../arm-none-eabi/lib\libc_s.a(lib_a-locale.o)
 .bss           0x00000000        0x0 c:/isis/application/toolchain/bin/../lib/gcc/arm-none-eabi/4.7.4/../../../../arm-none-eabi/lib\libc_s.a(lib_a-locale.o)
 .text._setlocale_r
                0x00000000       0x6c c:/isis/application/toolchain/bin/../lib/gcc/arm-none-eabi/4.7.4/../../../../arm-none-eabi/lib\libc_s.a(lib_a-locale.o)
 .text.__locale_charset
                0x00000000        0xc c:/isis/application/toolchain/bin/../lib/gcc/arm-none-eabi/4.7.4/../../../../arm-none-eabi/lib\libc_s.a(lib_a-locale.o)
 .text.__locale_mb_cur_max
                0x00000000       0x10 c:/isis/application/toolchain/bin/../lib/gcc/arm-none-eabi/4.7.4/../../../../arm-none-eabi/lib\libc_s.a(lib_a-locale.o)
 .text.__locale_msgcharset
                0x00000000        0xc c:/isis/application/toolchain/bin/../lib/gcc/arm-none-eabi/4.7.4/../../../../arm-none-eabi/lib\libc_s.a(lib_a-locale.o)
 .text.__locale_cjk_lang
                0x00000000        0x8 c:/isis/application/toolchain/bin/../lib/gcc/arm-none-eabi/4.7.4/../../../../arm-none-eabi/lib\libc_s.a(lib_a-locale.o)
 .text.setlocale
                0x00000000       0x1c c:/isis/application/toolchain/bin/../lib/gcc/arm-none-eabi/4.7.4/../../../../arm-none-eabi/lib\libc_s.a(lib_a-locale.o)
 .text.localeconv
                0x00000000        0xc c:/isis/application/toolchain/bin/../lib/gcc/arm-none-eabi/4.7.4/../../../../arm-none-eabi/lib\libc_s.a(lib_a-locale.o)
 .data.lc_message_charset
                0x00000000       0x20 c:/isis/application/toolchain/bin/../lib/gcc/arm-none-eabi/4.7.4/../../../../arm-none-eabi/lib\libc_s.a(lib_a-locale.o)
 .bss._PathLocale
                0x00000000        0x4 c:/isis/application/toolchain/bin/../lib/gcc/arm-none-eabi/4.7.4/../../../../arm-none-eabi/lib\libc_s.a(lib_a-locale.o)
 .bss.__nlocale_changed
                0x00000000        0x4 c:/isis/application/toolchain/bin/../lib/gcc/arm-none-eabi/4.7.4/../../../../arm-none-eabi/lib\libc_s.a(lib_a-locale.o)
 .bss.__mlocale_changed
                0x00000000        0x4 c:/isis/application/toolchain/bin/../lib/gcc/arm-none-eabi/4.7.4/../../../../arm-none-eabi/lib\libc_s.a(lib_a-locale.o)
 .data.lc_ctype_charset
                0x00000000       0x20 c:/isis/application/toolchain/bin/../lib/gcc/arm-none-eabi/4.7.4/../../../../arm-none-eabi/lib\libc_s.a(lib_a-locale.o)
 .data.__mb_cur_max
                0x00000000        0x4 c:/isis/application/toolchain/bin/../lib/gcc/arm-none-eabi/4.7.4/../../../../arm-none-eabi/lib\libc_s.a(lib_a-locale.o)
 .text          0x00000000        0x0 c:/isis/application/toolchain/bin/../lib/gcc/arm-none-eabi/4.7.4/../../../../arm-none-eabi/lib\libc_s.a(lib_a-malloc.o)
 .data          0x00000000        0x0 c:/isis/application/toolchain/bin/../lib/gcc/arm-none-eabi/4.7.4/../../../../arm-none-eabi/lib\libc_s.a(lib_a-malloc.o)
 .bss           0x00000000        0x0 c:/isis/application/toolchain/bin/../lib/gcc/arm-none-eabi/4.7.4/../../../../arm-none-eabi/lib\libc_s.a(lib_a-malloc.o)
 .text          0x00000000        0x0 c:/isis/application/toolchain/bin/../lib/gcc/arm-none-eabi/4.7.4/../../../../arm-none-eabi/lib\libc_s.a(lib_a-mallocr.o)
 .data          0x00000000        0x0 c:/isis/application/toolchain/bin/../lib/gcc/arm-none-eabi/4.7.4/../../../../arm-none-eabi/lib\libc_s.a(lib_a-mallocr.o)
 .bss           0x00000000        0x0 c:/isis/application/toolchain/bin/../lib/gcc/arm-none-eabi/4.7.4/../../../../arm-none-eabi/lib\libc_s.a(lib_a-mallocr.o)
 .text          0x00000000        0x0 c:/isis/application/toolchain/bin/../lib/gcc/arm-none-eabi/4.7.4/../../../../arm-none-eabi/lib\libc_s.a(lib_a-memcpy.o)
 .data          0x00000000        0x0 c:/isis/application/toolchain/bin/../lib/gcc/arm-none-eabi/4.7.4/../../../../arm-none-eabi/lib\libc_s.a(lib_a-memcpy.o)
 .bss           0x00000000        0x0 c:/isis/application/toolchain/bin/../lib/gcc/arm-none-eabi/4.7.4/../../../../arm-none-eabi/lib\libc_s.a(lib_a-memcpy.o)
 .text          0x00000000        0x0 c:/isis/application/toolchain/bin/../lib/gcc/arm-none-eabi/4.7.4/../../../../arm-none-eabi/lib\libc_s.a(lib_a-mprec.o)
 .data          0x00000000        0x0 c:/isis/application/toolchain/bin/../lib/gcc/arm-none-eabi/4.7.4/../../../../arm-none-eabi/lib\libc_s.a(lib_a-mprec.o)
 .bss           0x00000000        0x0 c:/isis/application/toolchain/bin/../lib/gcc/arm-none-eabi/4.7.4/../../../../arm-none-eabi/lib\libc_s.a(lib_a-mprec.o)
 .text._mprec_log10
                0x00000000       0x4c c:/isis/application/toolchain/bin/../lib/gcc/arm-none-eabi/4.7.4/../../../../arm-none-eabi/lib\libc_s.a(lib_a-mprec.o)
 .rodata.__mprec_tinytens
                0x00000000       0x28 c:/isis/application/toolchain/bin/../lib/gcc/arm-none-eabi/4.7.4/../../../../arm-none-eabi/lib\libc_s.a(lib_a-mprec.o)
 .text          0x00000000        0x0 c:/isis/application/toolchain/bin/../lib/gcc/arm-none-eabi/4.7.4/../../../../arm-none-eabi/lib\libc_s.a(lib_a-s_fpclassify.o)
 .data          0x00000000        0x0 c:/isis/application/toolchain/bin/../lib/gcc/arm-none-eabi/4.7.4/../../../../arm-none-eabi/lib\libc_s.a(lib_a-s_fpclassify.o)
 .bss           0x00000000        0x0 c:/isis/application/toolchain/bin/../lib/gcc/arm-none-eabi/4.7.4/../../../../arm-none-eabi/lib\libc_s.a(lib_a-s_fpclassify.o)
 .text          0x00000000        0x0 c:/isis/application/toolchain/bin/../lib/gcc/arm-none-eabi/4.7.4/../../../../arm-none-eabi/lib\libc_s.a(lib_a-sbrkr.o)
 .data          0x00000000        0x0 c:/isis/application/toolchain/bin/../lib/gcc/arm-none-eabi/4.7.4/../../../../arm-none-eabi/lib\libc_s.a(lib_a-sbrkr.o)
 .bss           0x00000000        0x0 c:/isis/application/toolchain/bin/../lib/gcc/arm-none-eabi/4.7.4/../../../../arm-none-eabi/lib\libc_s.a(lib_a-sbrkr.o)
 .text          0x00000000        0x0 c:/isis/application/toolchain/bin/../lib/gcc/arm-none-eabi/4.7.4/../../../../arm-none-eabi/lib\libc_s.a(lib_a-sf_nan.o)
 .data          0x00000000        0x0 c:/isis/application/toolchain/bin/../lib/gcc/arm-none-eabi/4.7.4/../../../../arm-none-eabi/lib\libc_s.a(lib_a-sf_nan.o)
 .bss           0x00000000        0x0 c:/isis/application/toolchain/bin/../lib/gcc/arm-none-eabi/4.7.4/../../../../arm-none-eabi/lib\libc_s.a(lib_a-sf_nan.o)
 .text          0x00000000        0x0 c:/isis/application/toolchain/bin/../lib/gcc/arm-none-eabi/4.7.4/../../../../arm-none-eabi/lib\libc_s.a(lib_a-sprintf.o)
 .data          0x00000000        0x0 c:/isis/application/toolchain/bin/../lib/gcc/arm-none-eabi/4.7.4/../../../../arm-none-eabi/lib\libc_s.a(lib_a-sprintf.o)
 .bss           0x00000000        0x0 c:/isis/application/toolchain/bin/../lib/gcc/arm-none-eabi/4.7.4/../../../../arm-none-eabi/lib\libc_s.a(lib_a-sprintf.o)
 .text._sprintf_r
                0x00000000       0x60 c:/isis/application/toolchain/bin/../lib/gcc/arm-none-eabi/4.7.4/../../../../arm-none-eabi/lib\libc_s.a(lib_a-sprintf.o)
 .text          0x00000000        0x0 c:/isis/application/toolchain/bin/../lib/gcc/arm-none-eabi/4.7.4/../../../../arm-none-eabi/lib\libc_s.a(lib_a-strcmp.o)
 .data          0x00000000        0x0 c:/isis/application/toolchain/bin/../lib/gcc/arm-none-eabi/4.7.4/../../../../arm-none-eabi/lib\libc_s.a(lib_a-strcmp.o)
 .bss           0x00000000        0x0 c:/isis/application/toolchain/bin/../lib/gcc/arm-none-eabi/4.7.4/../../../../arm-none-eabi/lib\libc_s.a(lib_a-strcmp.o)
 .text.strcmp   0x00000000       0x1c c:/isis/application/toolchain/bin/../lib/gcc/arm-none-eabi/4.7.4/../../../../arm-none-eabi/lib\libc_s.a(lib_a-strcmp.o)
 .ARM.attributes
                0x00000000       0x30 c:/isis/application/toolchain/bin/../lib/gcc/arm-none-eabi/4.7.4/../../../../arm-none-eabi/lib\libc_s.a(lib_a-strcmp.o)
 .debug_frame   0x00000000       0x20 c:/isis/application/toolchain/bin/../lib/gcc/arm-none-eabi/4.7.4/../../../../arm-none-eabi/lib\libc_s.a(lib_a-strcmp.o)
 .text          0x00000000        0x0 c:/isis/application/toolchain/bin/../lib/gcc/arm-none-eabi/4.7.4/../../../../arm-none-eabi/lib\libc_s.a(lib_a-strlen.o)
 .data          0x00000000        0x0 c:/isis/application/toolchain/bin/../lib/gcc/arm-none-eabi/4.7.4/../../../../arm-none-eabi/lib\libc_s.a(lib_a-strlen.o)
 .bss           0x00000000        0x0 c:/isis/application/toolchain/bin/../lib/gcc/arm-none-eabi/4.7.4/../../../../arm-none-eabi/lib\libc_s.a(lib_a-strlen.o)
 .text          0x00000000        0x0 c:/isis/application/toolchain/bin/../lib/gcc/arm-none-eabi/4.7.4/../../../../arm-none-eabi/lib\libc_s.a(lib_a-strtod.o)
 .data          0x00000000        0x0 c:/isis/application/toolchain/bin/../lib/gcc/arm-none-eabi/4.7.4/../../../../arm-none-eabi/lib\libc_s.a(lib_a-strtod.o)
 .bss           0x00000000        0x0 c:/isis/application/toolchain/bin/../lib/gcc/arm-none-eabi/4.7.4/../../../../arm-none-eabi/lib\libc_s.a(lib_a-strtod.o)
 .text.strtod   0x00000000       0x1c c:/isis/application/toolchain/bin/../lib/gcc/arm-none-eabi/4.7.4/../../../../arm-none-eabi/lib\libc_s.a(lib_a-strtod.o)
 .text.strtof   0x00000000       0x50 c:/isis/application/toolchain/bin/../lib/gcc/arm-none-eabi/4.7.4/../../../../arm-none-eabi/lib\libc_s.a(lib_a-strtod.o)
 .text          0x00000000        0x0 c:/isis/application/toolchain/bin/../lib/gcc/arm-none-eabi/4.7.4/../../../../arm-none-eabi/lib\libc_s.a(lib_a-strtol.o)
 .data          0x00000000        0x0 c:/isis/application/toolchain/bin/../lib/gcc/arm-none-eabi/4.7.4/../../../../arm-none-eabi/lib\libc_s.a(lib_a-strtol.o)
 .bss           0x00000000        0x0 c:/isis/application/toolchain/bin/../lib/gcc/arm-none-eabi/4.7.4/../../../../arm-none-eabi/lib\libc_s.a(lib_a-strtol.o)
 .text.strtol   0x00000000       0x2c c:/isis/application/toolchain/bin/../lib/gcc/arm-none-eabi/4.7.4/../../../../arm-none-eabi/lib\libc_s.a(lib_a-strtol.o)
 .text          0x00000000        0x0 c:/isis/application/toolchain/bin/../lib/gcc/arm-none-eabi/4.7.4/../../../../arm-none-eabi/lib\libc_s.a(lib_a-svfprintf.o)
 .data          0x00000000        0x0 c:/isis/application/toolchain/bin/../lib/gcc/arm-none-eabi/4.7.4/../../../../arm-none-eabi/lib\libc_s.a(lib_a-svfprintf.o)
 .bss           0x00000000        0x0 c:/isis/application/toolchain/bin/../lib/gcc/arm-none-eabi/4.7.4/../../../../arm-none-eabi/lib\libc_s.a(lib_a-svfprintf.o)
 .text.__ssprint_r
                0x00000000      0x184 c:/isis/application/toolchain/bin/../lib/gcc/arm-none-eabi/4.7.4/../../../../arm-none-eabi/lib\libc_s.a(lib_a-svfprintf.o)
 .text          0x00000000        0x0 c:/isis/application/toolchain/bin/../lib/gcc/arm-none-eabi/4.7.4/../../../../arm-none-eabi/lib\libc_s.a(lib_a-callocr.o)
 .data          0x00000000        0x0 c:/isis/application/toolchain/bin/../lib/gcc/arm-none-eabi/4.7.4/../../../../arm-none-eabi/lib\libc_s.a(lib_a-callocr.o)
 .bss           0x00000000        0x0 c:/isis/application/toolchain/bin/../lib/gcc/arm-none-eabi/4.7.4/../../../../arm-none-eabi/lib\libc_s.a(lib_a-callocr.o)
 .text          0x00000000        0x0 c:/isis/application/toolchain/bin/../lib/gcc/arm-none-eabi/4.7.4/../../../../arm-none-eabi/lib\libc_s.a(lib_a-ctype_.o)
 .data          0x00000000        0x0 c:/isis/application/toolchain/bin/../lib/gcc/arm-none-eabi/4.7.4/../../../../arm-none-eabi/lib\libc_s.a(lib_a-ctype_.o)
 .bss           0x00000000        0x0 c:/isis/application/toolchain/bin/../lib/gcc/arm-none-eabi/4.7.4/../../../../arm-none-eabi/lib\libc_s.a(lib_a-ctype_.o)
 .text          0x00000000        0x0 c:/isis/application/toolchain/bin/../lib/gcc/arm-none-eabi/4.7.4/../../../../arm-none-eabi/lib\libc_s.a(lib_a-freer.o)
 .data          0x00000000        0x0 c:/isis/application/toolchain/bin/../lib/gcc/arm-none-eabi/4.7.4/../../../../arm-none-eabi/lib\libc_s.a(lib_a-freer.o)
 .bss           0x00000000        0x0 c:/isis/application/toolchain/bin/../lib/gcc/arm-none-eabi/4.7.4/../../../../arm-none-eabi/lib\libc_s.a(lib_a-freer.o)
 .text          0x00000000        0x0 c:/isis/application/toolchain/bin/../lib/gcc/arm-none-eabi/4.7.4/../../../../arm-none-eabi/lib\libc_s.a(lib_a-gdtoa-gethex.o)
 .data          0x00000000        0x0 c:/isis/application/toolchain/bin/../lib/gcc/arm-none-eabi/4.7.4/../../../../arm-none-eabi/lib\libc_s.a(lib_a-gdtoa-gethex.o)
 .bss           0x00000000        0x0 c:/isis/application/toolchain/bin/../lib/gcc/arm-none-eabi/4.7.4/../../../../arm-none-eabi/lib\libc_s.a(lib_a-gdtoa-gethex.o)
 .text          0x00000000        0x0 c:/isis/application/toolchain/bin/../lib/gcc/arm-none-eabi/4.7.4/../../../../arm-none-eabi/lib\libc_s.a(lib_a-gdtoa-hexnan.o)
 .data          0x00000000        0x0 c:/isis/application/toolchain/bin/../lib/gcc/arm-none-eabi/4.7.4/../../../../arm-none-eabi/lib\libc_s.a(lib_a-gdtoa-hexnan.o)
 .bss           0x00000000        0x0 c:/isis/application/toolchain/bin/../lib/gcc/arm-none-eabi/4.7.4/../../../../arm-none-eabi/lib\libc_s.a(lib_a-gdtoa-hexnan.o)
 .text          0x00000000        0x0 c:/isis/application/toolchain/bin/../lib/gcc/arm-none-eabi/4.7.4/../../../../arm-none-eabi/lib\libc_s.a(lib_a-impure.o)
 .data          0x00000000        0x0 c:/isis/application/toolchain/bin/../lib/gcc/arm-none-eabi/4.7.4/../../../../arm-none-eabi/lib\libc_s.a(lib_a-impure.o)
 .bss           0x00000000        0x0 c:/isis/application/toolchain/bin/../lib/gcc/arm-none-eabi/4.7.4/../../../../arm-none-eabi/lib\libc_s.a(lib_a-impure.o)
 .text          0x00000000        0x0 c:/isis/application/toolchain/bin/../lib/gcc/arm-none-eabi/4.7.4/../../../../arm-none-eabi/lib\libc_s.a(lib_a-memchr.o)
 .data          0x00000000        0x0 c:/isis/application/toolchain/bin/../lib/gcc/arm-none-eabi/4.7.4/../../../../arm-none-eabi/lib\libc_s.a(lib_a-memchr.o)
 .bss           0x00000000        0x0 c:/isis/application/toolchain/bin/../lib/gcc/arm-none-eabi/4.7.4/../../../../arm-none-eabi/lib\libc_s.a(lib_a-memchr.o)
 .text          0x00000000        0x0 c:/isis/application/toolchain/bin/../lib/gcc/arm-none-eabi/4.7.4/../../../../arm-none-eabi/lib\libc_s.a(lib_a-memmove.o)
 .data          0x00000000        0x0 c:/isis/application/toolchain/bin/../lib/gcc/arm-none-eabi/4.7.4/../../../../arm-none-eabi/lib\libc_s.a(lib_a-memmove.o)
 .bss           0x00000000        0x0 c:/isis/application/toolchain/bin/../lib/gcc/arm-none-eabi/4.7.4/../../../../arm-none-eabi/lib\libc_s.a(lib_a-memmove.o)
 .text.memmove  0x00000000       0x64 c:/isis/application/toolchain/bin/../lib/gcc/arm-none-eabi/4.7.4/../../../../arm-none-eabi/lib\libc_s.a(lib_a-memmove.o)
 .ARM.attributes
                0x00000000       0x30 c:/isis/application/toolchain/bin/../lib/gcc/arm-none-eabi/4.7.4/../../../../arm-none-eabi/lib\libc_s.a(lib_a-memmove.o)
 .debug_frame   0x00000000       0x28 c:/isis/application/toolchain/bin/../lib/gcc/arm-none-eabi/4.7.4/../../../../arm-none-eabi/lib\libc_s.a(lib_a-memmove.o)
 .text          0x00000000        0x0 c:/isis/application/toolchain/bin/../lib/gcc/arm-none-eabi/4.7.4/../../../../arm-none-eabi/lib\libc_s.a(lib_a-memset.o)
 .data          0x00000000        0x0 c:/isis/application/toolchain/bin/../lib/gcc/arm-none-eabi/4.7.4/../../../../arm-none-eabi/lib\libc_s.a(lib_a-memset.o)
 .bss           0x00000000        0x0 c:/isis/application/toolchain/bin/../lib/gcc/arm-none-eabi/4.7.4/../../../../arm-none-eabi/lib\libc_s.a(lib_a-memset.o)
 .text          0x00000000        0x0 c:/isis/application/toolchain/bin/../lib/gcc/arm-none-eabi/4.7.4/../../../../arm-none-eabi/lib\libc_s.a(lib_a-reallocr.o)
 .data          0x00000000        0x0 c:/isis/application/toolchain/bin/../lib/gcc/arm-none-eabi/4.7.4/../../../../arm-none-eabi/lib\libc_s.a(lib_a-reallocr.o)
 .bss           0x00000000        0x0 c:/isis/application/toolchain/bin/../lib/gcc/arm-none-eabi/4.7.4/../../../../arm-none-eabi/lib\libc_s.a(lib_a-reallocr.o)
 .text          0x00000000        0x0 c:/isis/application/toolchain/bin/../lib/gcc/arm-none-eabi/4.7.4/../../../../arm-none-eabi/lib\libc_s.a(lib_a-reent.o)
 .data          0x00000000        0x0 c:/isis/application/toolchain/bin/../lib/gcc/arm-none-eabi/4.7.4/../../../../arm-none-eabi/lib\libc_s.a(lib_a-reent.o)
 .bss           0x00000000        0x0 c:/isis/application/toolchain/bin/../lib/gcc/arm-none-eabi/4.7.4/../../../../arm-none-eabi/lib\libc_s.a(lib_a-reent.o)
 .text.cleanup_glue
                0x00000000       0x2c c:/isis/application/toolchain/bin/../lib/gcc/arm-none-eabi/4.7.4/../../../../arm-none-eabi/lib\libc_s.a(lib_a-reent.o)
 .text._reclaim_reent
                0x00000000      0x13c c:/isis/application/toolchain/bin/../lib/gcc/arm-none-eabi/4.7.4/../../../../arm-none-eabi/lib\libc_s.a(lib_a-reent.o)
 .text._wrapup_reent
                0x00000000       0x5c c:/isis/application/toolchain/bin/../lib/gcc/arm-none-eabi/4.7.4/../../../../arm-none-eabi/lib\libc_s.a(lib_a-reent.o)
 .text          0x00000000        0x0 c:/isis/application/toolchain/bin/../lib/gcc/arm-none-eabi/4.7.4/../../../../arm-none-eabi/lib\libc_s.a(lib_a-strncmp.o)
 .data          0x00000000        0x0 c:/isis/application/toolchain/bin/../lib/gcc/arm-none-eabi/4.7.4/../../../../arm-none-eabi/lib\libc_s.a(lib_a-strncmp.o)
 .bss           0x00000000        0x0 c:/isis/application/toolchain/bin/../lib/gcc/arm-none-eabi/4.7.4/../../../../arm-none-eabi/lib\libc_s.a(lib_a-strncmp.o)
 .text          0x00000000        0x0 c:/isis/application/toolchain/bin/../lib/gcc/arm-none-eabi/4.7.4/../../../../arm-none-eabi/lib\libc_s.a(lib_a-msizer.o)
 .data          0x00000000        0x0 c:/isis/application/toolchain/bin/../lib/gcc/arm-none-eabi/4.7.4/../../../../arm-none-eabi/lib\libc_s.a(lib_a-msizer.o)
 .bss           0x00000000        0x0 c:/isis/application/toolchain/bin/../lib/gcc/arm-none-eabi/4.7.4/../../../../arm-none-eabi/lib\libc_s.a(lib_a-msizer.o)
 .text          0x00000000        0x0 ./src/Demos/GomEPSdemo.o
 .data          0x00000000        0x0 ./src/Demos/GomEPSdemo.o
 .bss           0x00000000        0x0 ./src/Demos/GomEPSdemo.o
 .text          0x00000000        0x0 ./src/Demos/IsisAntSdemo.o
 .data          0x00000000        0x0 ./src/Demos/IsisAntSdemo.o
 .bss           0x00000000        0x0 ./src/Demos/IsisAntSdemo.o
 .text          0x00000000        0x0 ./src/Demos/IsisEPSdemo.o
 .data          0x00000000        0x0 ./src/Demos/IsisEPSdemo.o
 .text          0x00000000        0x0 ./src/Demos/IsisMTQv1demo.o
 .data          0x00000000        0x0 ./src/Demos/IsisMTQv1demo.o
 .bss           0x00000000        0x0 ./src/Demos/IsisMTQv1demo.o
 .text          0x00000000        0x0 ./src/Demos/IsisMTQv2demo.o
 .data          0x00000000        0x0 ./src/Demos/IsisMTQv2demo.o
 .text          0x00000000        0x0 ./src/Demos/IsisSPdemo.o
 .data          0x00000000        0x0 ./src/Demos/IsisSPdemo.o
 .bss           0x00000000        0x0 ./src/Demos/IsisSPdemo.o
 .text          0x00000000        0x0 ./src/Demos/IsisSPv2demo.o
 .data          0x00000000        0x0 ./src/Demos/IsisSPv2demo.o
 .bss           0x00000000        0x0 ./src/Demos/IsisSPv2demo.o
 .text          0x00000000        0x0 ./src/Demos/IsisTRXUVdemo.o
 .text          0x00000000        0x0 ./src/Demos/IsisTRXVUdemo.o
 .data          0x00000000        0x0 ./src/Demos/IsisTRXVUdemo.o
 .text          0x00000000        0x0 ./src/Demos/IsisTxSdemo.o
 .data          0x00000000        0x0 ./src/Demos/IsisTxSdemo.o
 .text          0x00000000        0x0 ./src/Demos/common.o
 .data          0x00000000        0x0 ./src/Demos/common.o
 .bss           0x00000000        0x0 ./src/Demos/common.o
 .text.ing_debug_show_input_test
                0x00000000      0x10c ./src/Demos/common.o
 .text.ing_debug_show_input_ascii
                0x00000000       0xe4 ./src/Demos/common.o
 .text          0x00000000        0x0 ./src/main.o
 .data          0x00000000        0x0 ./src/main.o
 .bss           0x00000000        0x0 ./src/main.o
 .text          0x00000000        0x0 D:/Internship 2018/OBC Projects/SecondProject/satellite-subsystems/demo/..//satellite-subsystems/lib\libSatelliteSubsystemsD.a(GomEPS.o)
 .data          0x00000000        0x0 D:/Internship 2018/OBC Projects/SecondProject/satellite-subsystems/demo/..//satellite-subsystems/lib\libSatelliteSubsystemsD.a(GomEPS.o)
 .text.GomEpsPing
                0x00000000       0xf8 D:/Internship 2018/OBC Projects/SecondProject/satellite-subsystems/demo/..//satellite-subsystems/lib\libSatelliteSubsystemsD.a(GomEPS.o)
 .text.GomEpsSoftReset
                0x00000000       0xc4 D:/Internship 2018/OBC Projects/SecondProject/satellite-subsystems/demo/..//satellite-subsystems/lib\libSatelliteSubsystemsD.a(GomEPS.o)
 .text.GomEpsHardReset
                0x00000000       0xa8 D:/Internship 2018/OBC Projects/SecondProject/satellite-subsystems/demo/..//satellite-subsystems/lib\libSatelliteSubsystemsD.a(GomEPS.o)
 .text.GomEpsSetOutput
                0x00000000       0xbc D:/Internship 2018/OBC Projects/SecondProject/satellite-subsystems/demo/..//satellite-subsystems/lib\libSatelliteSubsystemsD.a(GomEPS.o)
 .text.GomEpsSetSingleOutput
                0x00000000       0xe4 D:/Internship 2018/OBC Projects/SecondProject/satellite-subsystems/demo/..//satellite-subsystems/lib\libSatelliteSubsystemsD.a(GomEPS.o)
 .text.GomEpsSetPhotovoltaicInputs
                0x00000000      0x11c D:/Internship 2018/OBC Projects/SecondProject/satellite-subsystems/demo/..//satellite-subsystems/lib\libSatelliteSubsystemsD.a(GomEPS.o)
 .text.GomEpsSetPptMode
                0x00000000       0xc0 D:/Internship 2018/OBC Projects/SecondProject/satellite-subsystems/demo/..//satellite-subsystems/lib\libSatelliteSubsystemsD.a(GomEPS.o)
 .text.GomEpsSetHeaterAutoMode
                0x00000000       0xe8 D:/Internship 2018/OBC Projects/SecondProject/satellite-subsystems/demo/..//satellite-subsystems/lib\libSatelliteSubsystemsD.a(GomEPS.o)
 .text.GomEpsResetCounters
                0x00000000       0xc4 D:/Internship 2018/OBC Projects/SecondProject/satellite-subsystems/demo/..//satellite-subsystems/lib\libSatelliteSubsystemsD.a(GomEPS.o)
 .text.GomEpsResetWDT
                0x00000000       0xc4 D:/Internship 2018/OBC Projects/SecondProject/satellite-subsystems/demo/..//satellite-subsystems/lib\libSatelliteSubsystemsD.a(GomEPS.o)
 .text.GomEpsConfigCMD
                0x00000000       0xb8 D:/Internship 2018/OBC Projects/SecondProject/satellite-subsystems/demo/..//satellite-subsystems/lib\libSatelliteSubsystemsD.a(GomEPS.o)
 .text.GomEpsConfigGet
                0x00000000      0x16c D:/Internship 2018/OBC Projects/SecondProject/satellite-subsystems/demo/..//satellite-subsystems/lib\libSatelliteSubsystemsD.a(GomEPS.o)
 .text.GomEpsConfigSet
                0x00000000      0x184 D:/Internship 2018/OBC Projects/SecondProject/satellite-subsystems/demo/..//satellite-subsystems/lib\libSatelliteSubsystemsD.a(GomEPS.o)
 .text.GomEpsConfig2CMD
                0x00000000       0xb8 D:/Internship 2018/OBC Projects/SecondProject/satellite-subsystems/demo/..//satellite-subsystems/lib\libSatelliteSubsystemsD.a(GomEPS.o)
 .text.GomEpsConfig2Get
                0x00000000      0x16c D:/Internship 2018/OBC Projects/SecondProject/satellite-subsystems/demo/..//satellite-subsystems/lib\libSatelliteSubsystemsD.a(GomEPS.o)
 .text.GomEpsConfig2Set
                0x00000000      0x184 D:/Internship 2018/OBC Projects/SecondProject/satellite-subsystems/demo/..//satellite-subsystems/lib\libSatelliteSubsystemsD.a(GomEPS.o)
 .text          0x00000000        0x0 D:/Internship 2018/OBC Projects/SecondProject/satellite-subsystems/demo/..//satellite-subsystems/lib\libSatelliteSubsystemsD.a(IsisAntS.o)
 .data          0x00000000        0x0 D:/Internship 2018/OBC Projects/SecondProject/satellite-subsystems/demo/..//satellite-subsystems/lib\libSatelliteSubsystemsD.a(IsisAntS.o)
 .text.IsisAntS_attemptDeployment
                0x00000000      0x168 D:/Internship 2018/OBC Projects/SecondProject/satellite-subsystems/demo/..//satellite-subsystems/lib\libSatelliteSubsystemsD.a(IsisAntS.o)
 .text.IsisAntS_getActivationCount
                0x00000000      0x138 D:/Internship 2018/OBC Projects/SecondProject/satellite-subsystems/demo/..//satellite-subsystems/lib\libSatelliteSubsystemsD.a(IsisAntS.o)
 .text.IsisAntS_getActivationTime
                0x00000000      0x138 D:/Internship 2018/OBC Projects/SecondProject/satellite-subsystems/demo/..//satellite-subsystems/lib\libSatelliteSubsystemsD.a(IsisAntS.o)
 .text.IsisAntS_cancelDeployment
                0x00000000      0x104 D:/Internship 2018/OBC Projects/SecondProject/satellite-subsystems/demo/..//satellite-subsystems/lib\libSatelliteSubsystemsD.a(IsisAntS.o)
 .text          0x00000000        0x0 D:/Internship 2018/OBC Projects/SecondProject/satellite-subsystems/demo/..//satellite-subsystems/lib\libSatelliteSubsystemsD.a(IsisEPS.o)
 .data          0x00000000        0x0 D:/Internship 2018/OBC Projects/SecondProject/satellite-subsystems/demo/..//satellite-subsystems/lib\libSatelliteSubsystemsD.a(IsisEPS.o)
 .text          0x00000000        0x0 D:/Internship 2018/OBC Projects/SecondProject/satellite-subsystems/demo/..//satellite-subsystems/lib\libSatelliteSubsystemsD.a(IsisMTQv1.o)
 .data          0x00000000        0x0 D:/Internship 2018/OBC Projects/SecondProject/satellite-subsystems/demo/..//satellite-subsystems/lib\libSatelliteSubsystemsD.a(IsisMTQv1.o)
 .text.IsisMTQv1SetResolution
                0x00000000       0xb8 D:/Internship 2018/OBC Projects/SecondProject/satellite-subsystems/demo/..//satellite-subsystems/lib\libSatelliteSubsystemsD.a(IsisMTQv1.o)
 .text          0x00000000        0x0 D:/Internship 2018/OBC Projects/SecondProject/satellite-subsystems/demo/..//satellite-subsystems/lib\libSatelliteSubsystemsD.a(IsisMTQv2.o)
 .data          0x00000000        0x0 D:/Internship 2018/OBC Projects/SecondProject/satellite-subsystems/demo/..//satellite-subsystems/lib\libSatelliteSubsystemsD.a(IsisMTQv2.o)
 .text          0x00000000        0x0 D:/Internship 2018/OBC Projects/SecondProject/satellite-subsystems/demo/..//satellite-subsystems/lib\libSatelliteSubsystemsD.a(IsisSolarPanel.o)
 .bss           0x00000000        0x0 D:/Internship 2018/OBC Projects/SecondProject/satellite-subsystems/demo/..//satellite-subsystems/lib\libSatelliteSubsystemsD.a(IsisSolarPanel.o)
 .text          0x00000000        0x0 D:/Internship 2018/OBC Projects/SecondProject/satellite-subsystems/demo/..//satellite-subsystems/lib\libSatelliteSubsystemsD.a(IsisSolarPanelv2.o)
 .text.IsisSolarPanelv2_getState
                0x00000000       0x24 D:/Internship 2018/OBC Projects/SecondProject/satellite-subsystems/demo/..//satellite-subsystems/lib\libSatelliteSubsystemsD.a(IsisSolarPanelv2.o)
 .text          0x00000000        0x0 D:/Internship 2018/OBC Projects/SecondProject/satellite-subsystems/demo/..//satellite-subsystems/lib\libSatelliteSubsystemsD.a(IsisTRXUV.o)
 .data          0x00000000        0x0 D:/Internship 2018/OBC Projects/SecondProject/satellite-subsystems/demo/..//satellite-subsystems/lib\libSatelliteSubsystemsD.a(IsisTRXUV.o)
 .text.IsisTrxuv_itcSendAX25OvrClSign
                0x00000000      0x10c D:/Internship 2018/OBC Projects/SecondProject/satellite-subsystems/demo/..//satellite-subsystems/lib\libSatelliteSubsystemsD.a(IsisTRXUV.o)
 .text.IsisTrxuv_itcSetAx25BeaconDefClSign
                0x00000000       0xe4 D:/Internship 2018/OBC Projects/SecondProject/satellite-subsystems/demo/..//satellite-subsystems/lib\libSatelliteSubsystemsD.a(IsisTRXUV.o)
 .text.IsisTrxuv_itcSetAx25BeaconOvrClSign
                0x00000000      0x10c D:/Internship 2018/OBC Projects/SecondProject/satellite-subsystems/demo/..//satellite-subsystems/lib\libSatelliteSubsystemsD.a(IsisTRXUV.o)
 .text.IsisTrxuv_itcSetCwBeacon
                0x00000000      0x190 D:/Internship 2018/OBC Projects/SecondProject/satellite-subsystems/demo/..//satellite-subsystems/lib\libSatelliteSubsystemsD.a(IsisTRXUV.o)
 .text.IsisTrxuv_itcClearBeacon
                0x00000000       0x80 D:/Internship 2018/OBC Projects/SecondProject/satellite-subsystems/demo/..//satellite-subsystems/lib\libSatelliteSubsystemsD.a(IsisTRXUV.o)
 .text.IsisTrxuv_itcSetDefToClSign
                0x00000000       0x9c D:/Internship 2018/OBC Projects/SecondProject/satellite-subsystems/demo/..//satellite-subsystems/lib\libSatelliteSubsystemsD.a(IsisTRXUV.o)
 .text.IsisTrxuv_itcSetDefFromClSign
                0x00000000       0x9c D:/Internship 2018/OBC Projects/SecondProject/satellite-subsystems/demo/..//satellite-subsystems/lib\libSatelliteSubsystemsD.a(IsisTRXUV.o)
 .text.IsisTrxuv_itcSetOutputMode
                0x00000000       0xe8 D:/Internship 2018/OBC Projects/SecondProject/satellite-subsystems/demo/..//satellite-subsystems/lib\libSatelliteSubsystemsD.a(IsisTRXUV.o)
 .text.IsisTrxuv_itcSetCWCharRate
                0x00000000       0xfc D:/Internship 2018/OBC Projects/SecondProject/satellite-subsystems/demo/..//satellite-subsystems/lib\libSatelliteSubsystemsD.a(IsisTRXUV.o)
 .text.IsisTrxuv_itcGetUptime
                0x00000000       0xa0 D:/Internship 2018/OBC Projects/SecondProject/satellite-subsystems/demo/..//satellite-subsystems/lib\libSatelliteSubsystemsD.a(IsisTRXUV.o)
 .text.IsisTrxuv_itcGetState
                0x00000000       0xd0 D:/Internship 2018/OBC Projects/SecondProject/satellite-subsystems/demo/..//satellite-subsystems/lib\libSatelliteSubsystemsD.a(IsisTRXUV.o)
 .text.IsisTrxuv_itcEstimateTransmissionTime
                0x00000000      0x14c D:/Internship 2018/OBC Projects/SecondProject/satellite-subsystems/demo/..//satellite-subsystems/lib\libSatelliteSubsystemsD.a(IsisTRXUV.o)
 .text.IsisTrxuv_imcGetTelemetry
                0x00000000       0xf8 D:/Internship 2018/OBC Projects/SecondProject/satellite-subsystems/demo/..//satellite-subsystems/lib\libSatelliteSubsystemsD.a(IsisTRXUV.o)
 .text.IsisTrxuv_imcGetVoltageCurrent
                0x00000000       0xd0 D:/Internship 2018/OBC Projects/SecondProject/satellite-subsystems/demo/..//satellite-subsystems/lib\libSatelliteSubsystemsD.a(IsisTRXUV.o)
 .text.IsisTrxuv_imcGetUptime
                0x00000000       0xa0 D:/Internship 2018/OBC Projects/SecondProject/satellite-subsystems/demo/..//satellite-subsystems/lib\libSatelliteSubsystemsD.a(IsisTRXUV.o)
 .text          0x00000000        0x0 D:/Internship 2018/OBC Projects/SecondProject/satellite-subsystems/demo/..//satellite-subsystems/lib\libSatelliteSubsystemsD.a(IsisTRXVU.o)
 .data          0x00000000        0x0 D:/Internship 2018/OBC Projects/SecondProject/satellite-subsystems/demo/..//satellite-subsystems/lib\libSatelliteSubsystemsD.a(IsisTRXVU.o)
 .text.IsisTrxvu_softReset
                0x00000000       0x74 D:/Internship 2018/OBC Projects/SecondProject/satellite-subsystems/demo/..//satellite-subsystems/lib\libSatelliteSubsystemsD.a(IsisTRXVU.o)
 .text.IsisTrxvu_hardReset
                0x00000000       0x74 D:/Internship 2018/OBC Projects/SecondProject/satellite-subsystems/demo/..//satellite-subsystems/lib\libSatelliteSubsystemsD.a(IsisTRXVU.o)
 .text.IsisTrxvu_tcSendAX25OvrClSign
                0x00000000      0x10c D:/Internship 2018/OBC Projects/SecondProject/satellite-subsystems/demo/..//satellite-subsystems/lib\libSatelliteSubsystemsD.a(IsisTRXVU.o)
 .text.IsisTrxvu_tcSetAx25BeaconDefClSign
                0x00000000       0xe4 D:/Internship 2018/OBC Projects/SecondProject/satellite-subsystems/demo/..//satellite-subsystems/lib\libSatelliteSubsystemsD.a(IsisTRXVU.o)
 .text.IsisTrxvu_tcSetAx25BeaconOvrClSign
                0x00000000      0x10c D:/Internship 2018/OBC Projects/SecondProject/satellite-subsystems/demo/..//satellite-subsystems/lib\libSatelliteSubsystemsD.a(IsisTRXVU.o)
 .text.IsisTrxvu_tcClearBeacon
                0x00000000       0x80 D:/Internship 2018/OBC Projects/SecondProject/satellite-subsystems/demo/..//satellite-subsystems/lib\libSatelliteSubsystemsD.a(IsisTRXVU.o)
 .text.IsisTrxvu_tcSetDefToClSign
                0x00000000       0x9c D:/Internship 2018/OBC Projects/SecondProject/satellite-subsystems/demo/..//satellite-subsystems/lib\libSatelliteSubsystemsD.a(IsisTRXVU.o)
 .text.IsisTrxvu_tcSetDefFromClSign
                0x00000000       0x9c D:/Internship 2018/OBC Projects/SecondProject/satellite-subsystems/demo/..//satellite-subsystems/lib\libSatelliteSubsystemsD.a(IsisTRXVU.o)
 .text.IsisTrxvu_tcGetUptime
                0x00000000       0xa0 D:/Internship 2018/OBC Projects/SecondProject/satellite-subsystems/demo/..//satellite-subsystems/lib\libSatelliteSubsystemsD.a(IsisTRXVU.o)
 .text.IsisTrxvu_tcGetState
                0x00000000       0xd0 D:/Internship 2018/OBC Projects/SecondProject/satellite-subsystems/demo/..//satellite-subsystems/lib\libSatelliteSubsystemsD.a(IsisTRXVU.o)
 .text.IsisTrxvu_tcGetLastTxTelemetry
                0x00000000       0xd0 D:/Internship 2018/OBC Projects/SecondProject/satellite-subsystems/demo/..//satellite-subsystems/lib\libSatelliteSubsystemsD.a(IsisTRXVU.o)
 .text.IsisTrxvu_tcEstimateTransmissionTime
                0x00000000      0x14c D:/Internship 2018/OBC Projects/SecondProject/satellite-subsystems/demo/..//satellite-subsystems/lib\libSatelliteSubsystemsD.a(IsisTRXVU.o)
 .text.IsisTrxvu_rcGetUptime
                0x00000000       0xa0 D:/Internship 2018/OBC Projects/SecondProject/satellite-subsystems/demo/..//satellite-subsystems/lib\libSatelliteSubsystemsD.a(IsisTRXVU.o)
 .text          0x00000000        0x0 D:/Internship 2018/OBC Projects/SecondProject/satellite-subsystems/demo/..//satellite-subsystems/lib\libSatelliteSubsystemsD.a(IsisTxS.o)
 .data          0x00000000        0x0 D:/Internship 2018/OBC Projects/SecondProject/satellite-subsystems/demo/..//satellite-subsystems/lib\libSatelliteSubsystemsD.a(IsisTxS.o)
 .text.IsisTxsSetDefToClSign
                0x00000000      0x114 D:/Internship 2018/OBC Projects/SecondProject/satellite-subsystems/demo/..//satellite-subsystems/lib\libSatelliteSubsystemsD.a(IsisTxS.o)
 .text.IsisTxsSetDefFromClSign
                0x00000000      0x114 D:/Internship 2018/OBC Projects/SecondProject/satellite-subsystems/demo/..//satellite-subsystems/lib\libSatelliteSubsystemsD.a(IsisTxS.o)
 .text.IsisTxsSetDefBothFromToClSign
                0x00000000      0x130 D:/Internship 2018/OBC Projects/SecondProject/satellite-subsystems/demo/..//satellite-subsystems/lib\libSatelliteSubsystemsD.a(IsisTxS.o)
 .text.IsisTxsSetMode
                0x00000000       0xd8 D:/Internship 2018/OBC Projects/SecondProject/satellite-subsystems/demo/..//satellite-subsystems/lib\libSatelliteSubsystemsD.a(IsisTxS.o)
 .text.IsisTxsSetTempThreshold
                0x00000000       0xc0 D:/Internship 2018/OBC Projects/SecondProject/satellite-subsystems/demo/..//satellite-subsystems/lib\libSatelliteSubsystemsD.a(IsisTxS.o)
 .text.IsisTxsSendAX25OvrClSign
                0x00000000      0x1d4 D:/Internship 2018/OBC Projects/SecondProject/satellite-subsystems/demo/..//satellite-subsystems/lib\libSatelliteSubsystemsD.a(IsisTxS.o)
 .text.IsisTxsGetAvailableBytes
                0x00000000       0xd0 D:/Internship 2018/OBC Projects/SecondProject/satellite-subsystems/demo/..//satellite-subsystems/lib\libSatelliteSubsystemsD.a(IsisTxS.o)
 .text          0x00000000        0x0 D:/Internship 2018/OBC Projects/SecondProject/satellite-subsystems/demo/..//satellite-subsystems/lib\libSatelliteSubsystemsD.a(version.o)
 .data          0x00000000        0x0 D:/Internship 2018/OBC Projects/SecondProject/satellite-subsystems/demo/..//satellite-subsystems/lib\libSatelliteSubsystemsD.a(version.o)
 .bss           0x00000000        0x0 D:/Internship 2018/OBC Projects/SecondProject/satellite-subsystems/demo/..//satellite-subsystems/lib\libSatelliteSubsystemsD.a(version.o)
 .text          0x00000000        0x0 D:/Internship 2018/OBC Projects/SecondProject/satellite-subsystems/demo/..//satellite-subsystems/lib\libSatelliteSubsystemsD.a(IsisTRXCommon.o)
 .data          0x00000000        0x0 D:/Internship 2018/OBC Projects/SecondProject/satellite-subsystems/demo/..//satellite-subsystems/lib\libSatelliteSubsystemsD.a(IsisTRXCommon.o)
 .bss           0x00000000        0x0 D:/Internship 2018/OBC Projects/SecondProject/satellite-subsystems/demo/..//satellite-subsystems/lib\libSatelliteSubsystemsD.a(IsisTRXCommon.o)
 .text.IsisTrxCommon_TxSendAX25OvrClSign
                0x00000000      0x120 D:/Internship 2018/OBC Projects/SecondProject/satellite-subsystems/demo/..//satellite-subsystems/lib\libSatelliteSubsystemsD.a(IsisTRXCommon.o)
 .text.IsisTrxCommon_TxSetAx25BeaconDefClSign
                0x00000000       0xf4 D:/Internship 2018/OBC Projects/SecondProject/satellite-subsystems/demo/..//satellite-subsystems/lib\libSatelliteSubsystemsD.a(IsisTRXCommon.o)
 .text.IsisTrxCommon_TxSetAx25BeaconOvrClSign
                0x00000000      0x124 D:/Internship 2018/OBC Projects/SecondProject/satellite-subsystems/demo/..//satellite-subsystems/lib\libSatelliteSubsystemsD.a(IsisTRXCommon.o)
 .text.IsisTrxCommon_TxClearBeacon
                0x00000000       0x68 D:/Internship 2018/OBC Projects/SecondProject/satellite-subsystems/demo/..//satellite-subsystems/lib\libSatelliteSubsystemsD.a(IsisTRXCommon.o)
 .text.IsisTrxCommon_TxSetDefToClSign
                0x00000000       0x84 D:/Internship 2018/OBC Projects/SecondProject/satellite-subsystems/demo/..//satellite-subsystems/lib\libSatelliteSubsystemsD.a(IsisTRXCommon.o)
 .text.IsisTrxCommon_TxSetDefFromClSign
                0x00000000       0x84 D:/Internship 2018/OBC Projects/SecondProject/satellite-subsystems/demo/..//satellite-subsystems/lib\libSatelliteSubsystemsD.a(IsisTRXCommon.o)
 .text.IsisTrxCommon_GetUptime
                0x00000000       0x8c D:/Internship 2018/OBC Projects/SecondProject/satellite-subsystems/demo/..//satellite-subsystems/lib\libSatelliteSubsystemsD.a(IsisTRXCommon.o)
 .text          0x00000000        0x0 c:/isis/application/toolchain/bin/../lib/gcc/arm-none-eabi/4.7.4/../../../../arm-none-eabi/lib\libm.a(lib_a-w_exp.o)
 .data          0x00000000        0x0 c:/isis/application/toolchain/bin/../lib/gcc/arm-none-eabi/4.7.4/../../../../arm-none-eabi/lib\libm.a(lib_a-w_exp.o)
 .bss           0x00000000        0x0 c:/isis/application/toolchain/bin/../lib/gcc/arm-none-eabi/4.7.4/../../../../arm-none-eabi/lib\libm.a(lib_a-w_exp.o)
 .text          0x00000000        0x0 c:/isis/application/toolchain/bin/../lib/gcc/arm-none-eabi/4.7.4/../../../../arm-none-eabi/lib\libm.a(lib_a-e_exp.o)
 .data          0x00000000        0x0 c:/isis/application/toolchain/bin/../lib/gcc/arm-none-eabi/4.7.4/../../../../arm-none-eabi/lib\libm.a(lib_a-e_exp.o)
 .bss           0x00000000        0x0 c:/isis/application/toolchain/bin/../lib/gcc/arm-none-eabi/4.7.4/../../../../arm-none-eabi/lib\libm.a(lib_a-e_exp.o)
 .text          0x00000000        0x0 c:/isis/application/toolchain/bin/../lib/gcc/arm-none-eabi/4.7.4/../../../../arm-none-eabi/lib\libm.a(lib_a-s_finite.o)
 .data          0x00000000        0x0 c:/isis/application/toolchain/bin/../lib/gcc/arm-none-eabi/4.7.4/../../../../arm-none-eabi/lib\libm.a(lib_a-s_finite.o)
 .bss           0x00000000        0x0 c:/isis/application/toolchain/bin/../lib/gcc/arm-none-eabi/4.7.4/../../../../arm-none-eabi/lib\libm.a(lib_a-s_finite.o)
 .text          0x00000000        0x0 c:/isis/application/toolchain/bin/../lib/gcc/arm-none-eabi/4.7.4/../../../../arm-none-eabi/lib\libm.a(lib_a-s_lib_ver.o)
 .data          0x00000000        0x0 c:/isis/application/toolchain/bin/../lib/gcc/arm-none-eabi/4.7.4/../../../../arm-none-eabi/lib\libm.a(lib_a-s_lib_ver.o)
 .bss           0x00000000        0x0 c:/isis/application/toolchain/bin/../lib/gcc/arm-none-eabi/4.7.4/../../../../arm-none-eabi/lib\libm.a(lib_a-s_lib_ver.o)
 .text          0x00000000        0x0 c:/isis/application/toolchain/bin/../lib/gcc/arm-none-eabi/4.7.4/../../../../arm-none-eabi/lib\libm.a(lib_a-s_matherr.o)
 .data          0x00000000        0x0 c:/isis/application/toolchain/bin/../lib/gcc/arm-none-eabi/4.7.4/../../../../arm-none-eabi/lib\libm.a(lib_a-s_matherr.o)
 .bss           0x00000000        0x0 c:/isis/application/toolchain/bin/../lib/gcc/arm-none-eabi/4.7.4/../../../../arm-none-eabi/lib\libm.a(lib_a-s_matherr.o)
 .text          0x00000000        0x0 D:/Internship 2018/OBC Projects/SecondProject/satellite-subsystems/demo/../..//hal/hal/lib\libHALD.a(I2C.o)
 .text.I2C_write
                0x00000000      0x110 D:/Internship 2018/OBC Projects/SecondProject/satellite-subsystems/demo/../..//hal/hal/lib\libHALD.a(I2C.o)
 .text.I2C_read
                0x00000000      0x110 D:/Internship 2018/OBC Projects/SecondProject/satellite-subsystems/demo/../..//hal/hal/lib\libHALD.a(I2C.o)
 .text.I2C_blockBus
                0x00000000       0x50 D:/Internship 2018/OBC Projects/SecondProject/satellite-subsystems/demo/../..//hal/hal/lib\libHALD.a(I2C.o)
 .text.I2C_releaseBus
                0x00000000       0x2c D:/Internship 2018/OBC Projects/SecondProject/satellite-subsystems/demo/../..//hal/hal/lib\libHALD.a(I2C.o)
 .text.I2C_getDriverState
                0x00000000       0x28 D:/Internship 2018/OBC Projects/SecondProject/satellite-subsystems/demo/../..//hal/hal/lib\libHALD.a(I2C.o)
 .text.I2C_getCurrentTransferStatus
                0x00000000       0x28 D:/Internship 2018/OBC Projects/SecondProject/satellite-subsystems/demo/../..//hal/hal/lib\libHALD.a(I2C.o)
 .text          0x00000000        0x0 D:/Internship 2018/OBC Projects/SecondProject/satellite-subsystems/demo/../..//hal/hal/lib\libHALD.a(LED.o)
 .data          0x00000000        0x0 D:/Internship 2018/OBC Projects/SecondProject/satellite-subsystems/demo/../..//hal/hal/lib\libHALD.a(LED.o)
 .text          0x00000000        0x0 D:/Internship 2018/OBC Projects/SecondProject/satellite-subsystems/demo/../..//hal/hal/lib\libHALD.a(SPI.o)
 .text.SPI_getDriverState
                0x00000000       0x58 D:/Internship 2018/OBC Projects/SecondProject/satellite-subsystems/demo/../..//hal/hal/lib\libHALD.a(SPI.o)
 .text          0x00000000        0x0 D:/Internship 2018/OBC Projects/SecondProject/satellite-subsystems/demo/../..//hal/hal/lib\libHALD.a(WatchDogTimerNoOS.o)
 .data          0x00000000        0x0 D:/Internship 2018/OBC Projects/SecondProject/satellite-subsystems/demo/../..//hal/hal/lib\libHALD.a(WatchDogTimerNoOS.o)
 .bss           0x00000000        0x0 D:/Internship 2018/OBC Projects/SecondProject/satellite-subsystems/demo/../..//hal/hal/lib\libHALD.a(WatchDogTimerNoOS.o)
 .text          0x00000000        0x0 D:/Internship 2018/OBC Projects/SecondProject/satellite-subsystems/demo/../..//hal/hal/lib\libHALD.a(WatchDogTimerOS.o)
 .data          0x00000000        0x0 D:/Internship 2018/OBC Projects/SecondProject/satellite-subsystems/demo/../..//hal/hal/lib\libHALD.a(WatchDogTimerOS.o)
 .text.WDT_stopWatchdogKickTask
                0x00000000       0x3c D:/Internship 2018/OBC Projects/SecondProject/satellite-subsystems/demo/../..//hal/hal/lib\libHALD.a(WatchDogTimerOS.o)
 .text          0x00000000        0x0 D:/Internship 2018/OBC Projects/SecondProject/satellite-subsystems/demo/../..//hal/hal/lib\libHALD.a(util.o)
 .data          0x00000000        0x0 D:/Internship 2018/OBC Projects/SecondProject/satellite-subsystems/demo/../..//hal/hal/lib\libHALD.a(util.o)
 .bss           0x00000000        0x0 D:/Internship 2018/OBC Projects/SecondProject/satellite-subsystems/demo/../..//hal/hal/lib\libHALD.a(util.o)
 .text.PrintChar
                0x00000000       0x58 D:/Internship 2018/OBC Projects/SecondProject/satellite-subsystems/demo/../..//hal/hal/lib\libHALD.a(util.o)
 .text.UTIL_DbguDumpMemory
                0x00000000      0x254 D:/Internship 2018/OBC Projects/SecondProject/satellite-subsystems/demo/../..//hal/hal/lib\libHALD.a(util.o)
 .text.UTIL_DbguDumpArrayBytes
                0x00000000       0x70 D:/Internship 2018/OBC Projects/SecondProject/satellite-subsystems/demo/../..//hal/hal/lib\libHALD.a(util.o)
 .text.UTIL_DbguGetString
                0x00000000       0xe0 D:/Internship 2018/OBC Projects/SecondProject/satellite-subsystems/demo/../..//hal/hal/lib\libHALD.a(util.o)
 .text.UTIL_DbguGetHexa32
                0x00000000      0x174 D:/Internship 2018/OBC Projects/SecondProject/satellite-subsystems/demo/../..//hal/hal/lib\libHALD.a(util.o)
 .text          0x00000000        0x0 D:/Internship 2018/OBC Projects/SecondProject/satellite-subsystems/demo/../..//hal/hal/lib\libHALD.a(version.o)
 .data          0x00000000        0x0 D:/Internship 2018/OBC Projects/SecondProject/satellite-subsystems/demo/../..//hal/hal/lib\libHALD.a(version.o)
 .bss           0x00000000        0x0 D:/Internship 2018/OBC Projects/SecondProject/satellite-subsystems/demo/../..//hal/hal/lib\libHALD.a(version.o)
 .text          0x00000000        0x0 D:/Internship 2018/OBC Projects/SecondProject/satellite-subsystems/demo/../..//hal/freertos/lib\libFreeRTOSD.a(queue.o)
 .data          0x00000000        0x0 D:/Internship 2018/OBC Projects/SecondProject/satellite-subsystems/demo/../..//hal/freertos/lib\libFreeRTOSD.a(queue.o)
 .bss           0x00000000        0x0 D:/Internship 2018/OBC Projects/SecondProject/satellite-subsystems/demo/../..//hal/freertos/lib\libFreeRTOSD.a(queue.o)
 .text.xQueueGiveMutexRecursive
                0x00000000       0xc0 D:/Internship 2018/OBC Projects/SecondProject/satellite-subsystems/demo/../..//hal/freertos/lib\libFreeRTOSD.a(queue.o)
 .text.xQueueTakeMutexRecursive
                0x00000000       0xd4 D:/Internship 2018/OBC Projects/SecondProject/satellite-subsystems/demo/../..//hal/freertos/lib\libFreeRTOSD.a(queue.o)
 .text.xQueueCreateCountingSemaphore
                0x00000000       0x88 D:/Internship 2018/OBC Projects/SecondProject/satellite-subsystems/demo/../..//hal/freertos/lib\libFreeRTOSD.a(queue.o)
 .text.xQueueReceiveFromISR
                0x00000000      0x15c D:/Internship 2018/OBC Projects/SecondProject/satellite-subsystems/demo/../..//hal/freertos/lib\libFreeRTOSD.a(queue.o)
 .text.xQueuePeekFromISR
                0x00000000       0xf0 D:/Internship 2018/OBC Projects/SecondProject/satellite-subsystems/demo/../..//hal/freertos/lib\libFreeRTOSD.a(queue.o)
 .text.uxQueueSpacesAvailable
                0x00000000       0x80 D:/Internship 2018/OBC Projects/SecondProject/satellite-subsystems/demo/../..//hal/freertos/lib\libFreeRTOSD.a(queue.o)
 .text.uxQueueMessagesWaitingFromISR
                0x00000000       0x64 D:/Internship 2018/OBC Projects/SecondProject/satellite-subsystems/demo/../..//hal/freertos/lib\libFreeRTOSD.a(queue.o)
 .text.xQueueIsQueueEmptyFromISR
                0x00000000       0x7c D:/Internship 2018/OBC Projects/SecondProject/satellite-subsystems/demo/../..//hal/freertos/lib\libFreeRTOSD.a(queue.o)
 .text.xQueueIsQueueFullFromISR
                0x00000000       0x84 D:/Internship 2018/OBC Projects/SecondProject/satellite-subsystems/demo/../..//hal/freertos/lib\libFreeRTOSD.a(queue.o)
 .text.vQueueAddToRegistry
                0x00000000       0x90 D:/Internship 2018/OBC Projects/SecondProject/satellite-subsystems/demo/../..//hal/freertos/lib\libFreeRTOSD.a(queue.o)
 .text          0x00000000        0x0 D:/Internship 2018/OBC Projects/SecondProject/satellite-subsystems/demo/../..//hal/freertos/lib\libFreeRTOSD.a(tasks.o)
 .text.vTaskDelayUntil
                0x00000000      0x170 D:/Internship 2018/OBC Projects/SecondProject/satellite-subsystems/demo/../..//hal/freertos/lib\libFreeRTOSD.a(tasks.o)
 .text.eTaskGetState
                0x00000000       0xe4 D:/Internship 2018/OBC Projects/SecondProject/satellite-subsystems/demo/../..//hal/freertos/lib\libFreeRTOSD.a(tasks.o)
 .text.uxTaskPriorityGet
                0x00000000       0x58 D:/Internship 2018/OBC Projects/SecondProject/satellite-subsystems/demo/../..//hal/freertos/lib\libFreeRTOSD.a(tasks.o)
 .text.vTaskPrioritySet
                0x00000000      0x22c D:/Internship 2018/OBC Projects/SecondProject/satellite-subsystems/demo/../..//hal/freertos/lib\libFreeRTOSD.a(tasks.o)
 .text.vTaskSuspend
                0x00000000       0xec D:/Internship 2018/OBC Projects/SecondProject/satellite-subsystems/demo/../..//hal/freertos/lib\libFreeRTOSD.a(tasks.o)
 .text.xTaskIsTaskSuspended
                0x00000000       0xd8 D:/Internship 2018/OBC Projects/SecondProject/satellite-subsystems/demo/../..//hal/freertos/lib\libFreeRTOSD.a(tasks.o)
 .text.vTaskResume
                0x00000000      0x12c D:/Internship 2018/OBC Projects/SecondProject/satellite-subsystems/demo/../..//hal/freertos/lib\libFreeRTOSD.a(tasks.o)
 .text.xTaskResumeFromISR
                0x00000000      0x150 D:/Internship 2018/OBC Projects/SecondProject/satellite-subsystems/demo/../..//hal/freertos/lib\libFreeRTOSD.a(tasks.o)
 .text.vTaskEndScheduler
                0x00000000       0x34 D:/Internship 2018/OBC Projects/SecondProject/satellite-subsystems/demo/../..//hal/freertos/lib\libFreeRTOSD.a(tasks.o)
 .text.xTaskGetTickCountFromISR
                0x00000000       0x38 D:/Internship 2018/OBC Projects/SecondProject/satellite-subsystems/demo/../..//hal/freertos/lib\libFreeRTOSD.a(tasks.o)
 .text.uxTaskGetNumberOfTasks
                0x00000000       0x24 D:/Internship 2018/OBC Projects/SecondProject/satellite-subsystems/demo/../..//hal/freertos/lib\libFreeRTOSD.a(tasks.o)
 .text.pcTaskGetTaskName
                0x00000000       0x80 D:/Internship 2018/OBC Projects/SecondProject/satellite-subsystems/demo/../..//hal/freertos/lib\libFreeRTOSD.a(tasks.o)
 .text          0x00000000        0x0 D:/Internship 2018/OBC Projects/SecondProject/satellite-subsystems/demo/../..//hal/freertos/lib\libFreeRTOSD.a(hooks.o)
 .data          0x00000000        0x0 D:/Internship 2018/OBC Projects/SecondProject/satellite-subsystems/demo/../..//hal/freertos/lib\libFreeRTOSD.a(hooks.o)
 .bss           0x00000000        0x0 D:/Internship 2018/OBC Projects/SecondProject/satellite-subsystems/demo/../..//hal/freertos/lib\libFreeRTOSD.a(hooks.o)
 .text          0x00000000        0x0 D:/Internship 2018/OBC Projects/SecondProject/satellite-subsystems/demo/../..//hal/freertos/lib\libFreeRTOSD.a(standardMemMang.o)
 .data          0x00000000        0x0 D:/Internship 2018/OBC Projects/SecondProject/satellite-subsystems/demo/../..//hal/freertos/lib\libFreeRTOSD.a(standardMemMang.o)
 .bss           0x00000000        0x0 D:/Internship 2018/OBC Projects/SecondProject/satellite-subsystems/demo/../..//hal/freertos/lib\libFreeRTOSD.a(standardMemMang.o)
 .text.vPortInitialiseBlocks
                0x00000000       0x14 D:/Internship 2018/OBC Projects/SecondProject/satellite-subsystems/demo/../..//hal/freertos/lib\libFreeRTOSD.a(standardMemMang.o)
 .text.xPortGetFreeHeapSize
                0x00000000       0x20 D:/Internship 2018/OBC Projects/SecondProject/satellite-subsystems/demo/../..//hal/freertos/lib\libFreeRTOSD.a(standardMemMang.o)
 .text          0x00000000        0x0 D:/Internship 2018/OBC Projects/SecondProject/satellite-subsystems/demo/../..//hal/freertos/lib\libFreeRTOSD.a(port.o)
 .bss           0x00000000        0x0 D:/Internship 2018/OBC Projects/SecondProject/satellite-subsystems/demo/../..//hal/freertos/lib\libFreeRTOSD.a(port.o)
 .text.vPortEndScheduler
                0x00000000       0x14 D:/Internship 2018/OBC Projects/SecondProject/satellite-subsystems/demo/../..//hal/freertos/lib\libFreeRTOSD.a(port.o)
 .text.vPortDisableInterruptsFromThumb
                0x00000000       0x18 D:/Internship 2018/OBC Projects/SecondProject/satellite-subsystems/demo/../..//hal/freertos/lib\libFreeRTOSD.a(port.o)
 .text.vPortEnableInterruptsFromThumb
                0x00000000       0x18 D:/Internship 2018/OBC Projects/SecondProject/satellite-subsystems/demo/../..//hal/freertos/lib\libFreeRTOSD.a(port.o)
 .text          0x00000000        0x0 D:/Internship 2018/OBC Projects/SecondProject/satellite-subsystems/demo/../..//hal/freertos/lib\libFreeRTOSD.a(list.o)
 .data          0x00000000        0x0 D:/Internship 2018/OBC Projects/SecondProject/satellite-subsystems/demo/../..//hal/freertos/lib\libFreeRTOSD.a(list.o)
 .bss           0x00000000        0x0 D:/Internship 2018/OBC Projects/SecondProject/satellite-subsystems/demo/../..//hal/freertos/lib\libFreeRTOSD.a(list.o)
 .text          0x00000000        0x0 D:/Internship 2018/OBC Projects/SecondProject/satellite-subsystems/demo/../..//hal/at91/lib\libAt91D.a(syscalls.o)
 .data          0x00000000        0x0 D:/Internship 2018/OBC Projects/SecondProject/satellite-subsystems/demo/../..//hal/at91/lib\libAt91D.a(syscalls.o)
 .text._open    0x00000000       0x2c D:/Internship 2018/OBC Projects/SecondProject/satellite-subsystems/demo/../..//hal/at91/lib\libAt91D.a(syscalls.o)
 .text._link    0x00000000       0x28 D:/Internship 2018/OBC Projects/SecondProject/satellite-subsystems/demo/../..//hal/at91/lib\libAt91D.a(syscalls.o)
 .text._rename  0x00000000       0x28 D:/Internship 2018/OBC Projects/SecondProject/satellite-subsystems/demo/../..//hal/at91/lib\libAt91D.a(syscalls.o)
 .text._unlink  0x00000000       0x24 D:/Internship 2018/OBC Projects/SecondProject/satellite-subsystems/demo/../..//hal/at91/lib\libAt91D.a(syscalls.o)
 .text.fsync    0x00000000       0x24 D:/Internship 2018/OBC Projects/SecondProject/satellite-subsystems/demo/../..//hal/at91/lib\libAt91D.a(syscalls.o)
 .text._stat    0x00000000       0x28 D:/Internship 2018/OBC Projects/SecondProject/satellite-subsystems/demo/../..//hal/at91/lib\libAt91D.a(syscalls.o)
 .text.exit     0x00000000       0x28 D:/Internship 2018/OBC Projects/SecondProject/satellite-subsystems/demo/../..//hal/at91/lib\libAt91D.a(syscalls.o)
 .text._exit    0x00000000       0x28 D:/Internship 2018/OBC Projects/SecondProject/satellite-subsystems/demo/../..//hal/at91/lib\libAt91D.a(syscalls.o)
 .text._kill    0x00000000       0x1c D:/Internship 2018/OBC Projects/SecondProject/satellite-subsystems/demo/../..//hal/at91/lib\libAt91D.a(syscalls.o)
 .text._getpid  0x00000000       0x1c D:/Internship 2018/OBC Projects/SecondProject/satellite-subsystems/demo/../..//hal/at91/lib\libAt91D.a(syscalls.o)
 .text._gettimeofday
                0x00000000       0x1c D:/Internship 2018/OBC Projects/SecondProject/satellite-subsystems/demo/../..//hal/at91/lib\libAt91D.a(syscalls.o)
 .text          0x00000000        0x0 D:/Internship 2018/OBC Projects/SecondProject/satellite-subsystems/demo/../..//hal/at91/lib\libAt91D.a(aic.o)
 .data          0x00000000        0x0 D:/Internship 2018/OBC Projects/SecondProject/satellite-subsystems/demo/../..//hal/at91/lib\libAt91D.a(aic.o)
 .bss           0x00000000        0x0 D:/Internship 2018/OBC Projects/SecondProject/satellite-subsystems/demo/../..//hal/at91/lib\libAt91D.a(aic.o)
 .text          0x00000000        0x0 D:/Internship 2018/OBC Projects/SecondProject/satellite-subsystems/demo/../..//hal/at91/lib\libAt91D.a(cp15.o)
 .data          0x00000000        0x0 D:/Internship 2018/OBC Projects/SecondProject/satellite-subsystems/demo/../..//hal/at91/lib\libAt91D.a(cp15.o)
 .bss           0x00000000        0x0 D:/Internship 2018/OBC Projects/SecondProject/satellite-subsystems/demo/../..//hal/at91/lib\libAt91D.a(cp15.o)
 .text.CP15_Is_I_CacheEnabled
                0x00000000       0x38 D:/Internship 2018/OBC Projects/SecondProject/satellite-subsystems/demo/../..//hal/at91/lib\libAt91D.a(cp15.o)
 .text.CP15_Is_MMUEnabled
                0x00000000       0x38 D:/Internship 2018/OBC Projects/SecondProject/satellite-subsystems/demo/../..//hal/at91/lib\libAt91D.a(cp15.o)
 .text.CP15_EnableMMU
                0x00000000       0x5c D:/Internship 2018/OBC Projects/SecondProject/satellite-subsystems/demo/../..//hal/at91/lib\libAt91D.a(cp15.o)
 .text.CP15_Is_DCacheEnabled
                0x00000000       0x38 D:/Internship 2018/OBC Projects/SecondProject/satellite-subsystems/demo/../..//hal/at91/lib\libAt91D.a(cp15.o)
 .text.CP15_Enable_D_Cache
                0x00000000       0x7c D:/Internship 2018/OBC Projects/SecondProject/satellite-subsystems/demo/../..//hal/at91/lib\libAt91D.a(cp15.o)
 .text          0x00000000        0x0 D:/Internship 2018/OBC Projects/SecondProject/satellite-subsystems/demo/../..//hal/at91/lib\libAt91D.a(dbgu.o)
 .data          0x00000000        0x0 D:/Internship 2018/OBC Projects/SecondProject/satellite-subsystems/demo/../..//hal/at91/lib\libAt91D.a(dbgu.o)
 .bss           0x00000000        0x0 D:/Internship 2018/OBC Projects/SecondProject/satellite-subsystems/demo/../..//hal/at91/lib\libAt91D.a(dbgu.o)
 .text.fputc    0x00000000       0x70 D:/Internship 2018/OBC Projects/SecondProject/satellite-subsystems/demo/../..//hal/at91/lib\libAt91D.a(dbgu.o)
 .text.fputs    0x00000000       0x80 D:/Internship 2018/OBC Projects/SecondProject/satellite-subsystems/demo/../..//hal/at91/lib\libAt91D.a(dbgu.o)
 .text.putchar  0x00000000       0x3c D:/Internship 2018/OBC Projects/SecondProject/satellite-subsystems/demo/../..//hal/at91/lib\libAt91D.a(dbgu.o)
 .text          0x00000000        0x0 D:/Internship 2018/OBC Projects/SecondProject/satellite-subsystems/demo/../..//hal/at91/lib\libAt91D.a(pio.o)
 .data          0x00000000        0x0 D:/Internship 2018/OBC Projects/SecondProject/satellite-subsystems/demo/../..//hal/at91/lib\libAt91D.a(pio.o)
 .bss           0x00000000        0x0 D:/Internship 2018/OBC Projects/SecondProject/satellite-subsystems/demo/../..//hal/at91/lib\libAt91D.a(pio.o)
 .text.PIO_GetOutputDataStatus
                0x00000000       0x60 D:/Internship 2018/OBC Projects/SecondProject/satellite-subsystems/demo/../..//hal/at91/lib\libAt91D.a(pio.o)
 .text.PIO_GetISR
                0x00000000       0x40 D:/Internship 2018/OBC Projects/SecondProject/satellite-subsystems/demo/../..//hal/at91/lib\libAt91D.a(pio.o)
 .text          0x00000000        0x0 D:/Internship 2018/OBC Projects/SecondProject/satellite-subsystems/demo/../..//hal/at91/lib\libAt91D.a(pit.o)
 .data          0x00000000        0x0 D:/Internship 2018/OBC Projects/SecondProject/satellite-subsystems/demo/../..//hal/at91/lib\libAt91D.a(pit.o)
 .bss           0x00000000        0x0 D:/Internship 2018/OBC Projects/SecondProject/satellite-subsystems/demo/../..//hal/at91/lib\libAt91D.a(pit.o)
 .text.PIT_SetPIV
                0x00000000       0x40 D:/Internship 2018/OBC Projects/SecondProject/satellite-subsystems/demo/../..//hal/at91/lib\libAt91D.a(pit.o)
 .text.PIT_DisableIT
                0x00000000       0x2c D:/Internship 2018/OBC Projects/SecondProject/satellite-subsystems/demo/../..//hal/at91/lib\libAt91D.a(pit.o)
 .text.PIT_GetMode
                0x00000000       0x24 D:/Internship 2018/OBC Projects/SecondProject/satellite-subsystems/demo/../..//hal/at91/lib\libAt91D.a(pit.o)
 .text.PIT_GetStatus
                0x00000000       0x24 D:/Internship 2018/OBC Projects/SecondProject/satellite-subsystems/demo/../..//hal/at91/lib\libAt91D.a(pit.o)
 .text.PIT_GetPIIR
                0x00000000       0x24 D:/Internship 2018/OBC Projects/SecondProject/satellite-subsystems/demo/../..//hal/at91/lib\libAt91D.a(pit.o)
 .text.PIT_GetPIVR
                0x00000000       0x24 D:/Internship 2018/OBC Projects/SecondProject/satellite-subsystems/demo/../..//hal/at91/lib\libAt91D.a(pit.o)
 .text          0x00000000        0x0 D:/Internship 2018/OBC Projects/SecondProject/satellite-subsystems/demo/../..//hal/at91/lib\libAt91D.a(pmc.o)
 .data          0x00000000        0x0 D:/Internship 2018/OBC Projects/SecondProject/satellite-subsystems/demo/../..//hal/at91/lib\libAt91D.a(pmc.o)
 .bss           0x00000000        0x0 D:/Internship 2018/OBC Projects/SecondProject/satellite-subsystems/demo/../..//hal/at91/lib\libAt91D.a(pmc.o)
 .text.PMC_DisableProcessorClock
                0x00000000       0x3c D:/Internship 2018/OBC Projects/SecondProject/satellite-subsystems/demo/../..//hal/at91/lib\libAt91D.a(pmc.o)
 .text.PMC_EnableAllPeripherals
                0x00000000       0x40 D:/Internship 2018/OBC Projects/SecondProject/satellite-subsystems/demo/../..//hal/at91/lib\libAt91D.a(pmc.o)
 .text.PMC_DisableAllPeripherals
                0x00000000       0x40 D:/Internship 2018/OBC Projects/SecondProject/satellite-subsystems/demo/../..//hal/at91/lib\libAt91D.a(pmc.o)
 .text.PMC_IsAllPeriphEnabled
                0x00000000       0x34 D:/Internship 2018/OBC Projects/SecondProject/satellite-subsystems/demo/../..//hal/at91/lib\libAt91D.a(pmc.o)
 .text.PMC_IsPeriphEnabled
                0x00000000       0x3c D:/Internship 2018/OBC Projects/SecondProject/satellite-subsystems/demo/../..//hal/at91/lib\libAt91D.a(pmc.o)
 .text.PMC_CPUInIdleMode
                0x00000000       0x14 D:/Internship 2018/OBC Projects/SecondProject/satellite-subsystems/demo/../..//hal/at91/lib\libAt91D.a(pmc.o)
 .text          0x00000000        0x0 D:/Internship 2018/OBC Projects/SecondProject/satellite-subsystems/demo/../..//hal/at91/lib\libAt91D.a(spi_at91.o)
 .data          0x00000000        0x0 D:/Internship 2018/OBC Projects/SecondProject/satellite-subsystems/demo/../..//hal/at91/lib\libAt91D.a(spi_at91.o)
 .bss           0x00000000        0x0 D:/Internship 2018/OBC Projects/SecondProject/satellite-subsystems/demo/../..//hal/at91/lib\libAt91D.a(spi_at91.o)
 .text.SPI_Write
                0x00000000       0x84 D:/Internship 2018/OBC Projects/SecondProject/satellite-subsystems/demo/../..//hal/at91/lib\libAt91D.a(spi_at91.o)
 .text.SPI_WriteBuffer
                0x00000000       0x98 D:/Internship 2018/OBC Projects/SecondProject/satellite-subsystems/demo/../..//hal/at91/lib\libAt91D.a(spi_at91.o)
 .text.SPI_IsFinished
                0x00000000       0x3c D:/Internship 2018/OBC Projects/SecondProject/satellite-subsystems/demo/../..//hal/at91/lib\libAt91D.a(spi_at91.o)
 .text.SPI_Read
                0x00000000       0x48 D:/Internship 2018/OBC Projects/SecondProject/satellite-subsystems/demo/../..//hal/at91/lib\libAt91D.a(spi_at91.o)
 .text.SPI_ReadBuffer
                0x00000000       0x98 D:/Internship 2018/OBC Projects/SecondProject/satellite-subsystems/demo/../..//hal/at91/lib\libAt91D.a(spi_at91.o)
 .text          0x00000000        0x0 D:/Internship 2018/OBC Projects/SecondProject/satellite-subsystems/demo/../..//hal/at91/lib\libAt91D.a(twi_at91.o)
 .data          0x00000000        0x0 D:/Internship 2018/OBC Projects/SecondProject/satellite-subsystems/demo/../..//hal/at91/lib\libAt91D.a(twi_at91.o)
 .bss           0x00000000        0x0 D:/Internship 2018/OBC Projects/SecondProject/satellite-subsystems/demo/../..//hal/at91/lib\libAt91D.a(twi_at91.o)
 .text.TWI_ConfigureSlave
                0x00000000       0xe0 D:/Internship 2018/OBC Projects/SecondProject/satellite-subsystems/demo/../..//hal/at91/lib\libAt91D.a(twi_at91.o)
 .text.TWI_Stop
                0x00000000       0x58 D:/Internship 2018/OBC Projects/SecondProject/satellite-subsystems/demo/../..//hal/at91/lib\libAt91D.a(twi_at91.o)
 .text.TWI_StartRead
                0x00000000      0x134 D:/Internship 2018/OBC Projects/SecondProject/satellite-subsystems/demo/../..//hal/at91/lib\libAt91D.a(twi_at91.o)
 .text.TWI_ReadByte
                0x00000000       0x5c D:/Internship 2018/OBC Projects/SecondProject/satellite-subsystems/demo/../..//hal/at91/lib\libAt91D.a(twi_at91.o)
 .text.TWI_WriteByte
                0x00000000       0x64 D:/Internship 2018/OBC Projects/SecondProject/satellite-subsystems/demo/../..//hal/at91/lib\libAt91D.a(twi_at91.o)
 .text.TWI_StartWrite
                0x00000000      0x140 D:/Internship 2018/OBC Projects/SecondProject/satellite-subsystems/demo/../..//hal/at91/lib\libAt91D.a(twi_at91.o)
 .text.TWI_ByteReceived
                0x00000000       0x3c D:/Internship 2018/OBC Projects/SecondProject/satellite-subsystems/demo/../..//hal/at91/lib\libAt91D.a(twi_at91.o)
 .text.TWI_ByteSent
                0x00000000       0x3c D:/Internship 2018/OBC Projects/SecondProject/satellite-subsystems/demo/../..//hal/at91/lib\libAt91D.a(twi_at91.o)
 .text.TWI_TransferComplete
                0x00000000       0x3c D:/Internship 2018/OBC Projects/SecondProject/satellite-subsystems/demo/../..//hal/at91/lib\libAt91D.a(twi_at91.o)
 .text.TWI_EnableIt
                0x00000000       0x90 D:/Internship 2018/OBC Projects/SecondProject/satellite-subsystems/demo/../..//hal/at91/lib\libAt91D.a(twi_at91.o)
 .text.TWI_DisableIt
                0x00000000       0x94 D:/Internship 2018/OBC Projects/SecondProject/satellite-subsystems/demo/../..//hal/at91/lib\libAt91D.a(twi_at91.o)
 .text.TWI_GetStatus
                0x00000000       0x5c D:/Internship 2018/OBC Projects/SecondProject/satellite-subsystems/demo/../..//hal/at91/lib\libAt91D.a(twi_at91.o)
 .text.TWI_SendSTOPCondition
                0x00000000       0x64 D:/Internship 2018/OBC Projects/SecondProject/satellite-subsystems/demo/../..//hal/at91/lib\libAt91D.a(twi_at91.o)
 .text          0x00000000        0x0 D:/Internship 2018/OBC Projects/SecondProject/satellite-subsystems/demo/../..//hal/at91/lib\libAt91D.a(ExitHandler.o)
 .data          0x00000000        0x0 D:/Internship 2018/OBC Projects/SecondProject/satellite-subsystems/demo/../..//hal/at91/lib\libAt91D.a(ExitHandler.o)
 .bss           0x00000000        0x0 D:/Internship 2018/OBC Projects/SecondProject/satellite-subsystems/demo/../..//hal/at91/lib\libAt91D.a(ExitHandler.o)
 .text          0x00000000        0x0 D:/Internship 2018/OBC Projects/SecondProject/satellite-subsystems/demo/../..//hal/at91/lib\libAt91D.a(board_cstartup.o)
 .data          0x00000000        0x0 D:/Internship 2018/OBC Projects/SecondProject/satellite-subsystems/demo/../..//hal/at91/lib\libAt91D.a(board_cstartup.o)
 .bss           0x00000000        0x0 D:/Internship 2018/OBC Projects/SecondProject/satellite-subsystems/demo/../..//hal/at91/lib\libAt91D.a(board_cstartup.o)
 .data          0x00000000        0x0 D:/Internship 2018/OBC Projects/SecondProject/satellite-subsystems/demo/../..//hal/at91/lib\libAt91D.a(cp15_asm.o)
 .bss           0x00000000        0x0 D:/Internship 2018/OBC Projects/SecondProject/satellite-subsystems/demo/../..//hal/at91/lib\libAt91D.a(cp15_asm.o)
 .text          0x00000000        0x0 D:/Internship 2018/OBC Projects/SecondProject/satellite-subsystems/demo/../..//hal/at91/lib\libAt91D.a(board_lowlevel.o)
 .data          0x00000000        0x0 D:/Internship 2018/OBC Projects/SecondProject/satellite-subsystems/demo/../..//hal/at91/lib\libAt91D.a(board_lowlevel.o)
 .bss           0x00000000        0x0 D:/Internship 2018/OBC Projects/SecondProject/satellite-subsystems/demo/../..//hal/at91/lib\libAt91D.a(board_lowlevel.o)
 .text.assignBusMatrixPriorities
                0x00000000       0x54 D:/Internship 2018/OBC Projects/SecondProject/satellite-subsystems/demo/../..//hal/at91/lib\libAt91D.a(board_lowlevel.o)
 .text          0x00000000        0x0 D:/Internship 2018/OBC Projects/SecondProject/satellite-subsystems/demo/../..//hal/at91/lib\libAt91D.a(board_memories.o)
 .data          0x00000000        0x0 D:/Internship 2018/OBC Projects/SecondProject/satellite-subsystems/demo/../..//hal/at91/lib\libAt91D.a(board_memories.o)
 .bss           0x00000000        0x0 D:/Internship 2018/OBC Projects/SecondProject/satellite-subsystems/demo/../..//hal/at91/lib\libAt91D.a(board_memories.o)
 .text.BOARD_RemapRom
                0x00000000       0x24 D:/Internship 2018/OBC Projects/SecondProject/satellite-subsystems/demo/../..//hal/at91/lib\libAt91D.a(board_memories.o)
 .text.BOARD_ConfigureSdram
                0x00000000      0x24c D:/Internship 2018/OBC Projects/SecondProject/satellite-subsystems/demo/../..//hal/at91/lib\libAt91D.a(board_memories.o)
 .text.BOARD_ConfigureNorFlash
                0x00000000       0xc4 D:/Internship 2018/OBC Projects/SecondProject/satellite-subsystems/demo/../..//hal/at91/lib\libAt91D.a(board_memories.o)
 .rodata        0x00000000        0xc D:/Internship 2018/OBC Projects/SecondProject/satellite-subsystems/demo/../..//hal/at91/lib\libAt91D.a(board_memories.o)
 .data          0x00000000        0x0 c:/isis/application/toolchain/bin/../lib/gcc/arm-none-eabi/4.7.4\libgcc.a(_udivsi3.o)
 .bss           0x00000000        0x0 c:/isis/application/toolchain/bin/../lib/gcc/arm-none-eabi/4.7.4\libgcc.a(_udivsi3.o)
 .data          0x00000000        0x0 c:/isis/application/toolchain/bin/../lib/gcc/arm-none-eabi/4.7.4\libgcc.a(_divsi3.o)
 .bss           0x00000000        0x0 c:/isis/application/toolchain/bin/../lib/gcc/arm-none-eabi/4.7.4\libgcc.a(_divsi3.o)
 .data          0x00000000        0x0 c:/isis/application/toolchain/bin/../lib/gcc/arm-none-eabi/4.7.4\libgcc.a(_dvmd_tls.o)
 .bss           0x00000000        0x0 c:/isis/application/toolchain/bin/../lib/gcc/arm-none-eabi/4.7.4\libgcc.a(_dvmd_tls.o)
 .data          0x00000000        0x0 c:/isis/application/toolchain/bin/../lib/gcc/arm-none-eabi/4.7.4\libgcc.a(_arm_addsubdf3.o)
 .bss           0x00000000        0x0 c:/isis/application/toolchain/bin/../lib/gcc/arm-none-eabi/4.7.4\libgcc.a(_arm_addsubdf3.o)
 .data          0x00000000        0x0 c:/isis/application/toolchain/bin/../lib/gcc/arm-none-eabi/4.7.4\libgcc.a(_arm_muldivdf3.o)
 .bss           0x00000000        0x0 c:/isis/application/toolchain/bin/../lib/gcc/arm-none-eabi/4.7.4\libgcc.a(_arm_muldivdf3.o)
 .data          0x00000000        0x0 c:/isis/application/toolchain/bin/../lib/gcc/arm-none-eabi/4.7.4\libgcc.a(_arm_cmpdf2.o)
 .bss           0x00000000        0x0 c:/isis/application/toolchain/bin/../lib/gcc/arm-none-eabi/4.7.4\libgcc.a(_arm_cmpdf2.o)
 .data          0x00000000        0x0 c:/isis/application/toolchain/bin/../lib/gcc/arm-none-eabi/4.7.4\libgcc.a(_arm_fixdfsi.o)
 .bss           0x00000000        0x0 c:/isis/application/toolchain/bin/../lib/gcc/arm-none-eabi/4.7.4\libgcc.a(_arm_fixdfsi.o)
 .data          0x00000000        0x0 c:/isis/application/toolchain/bin/../lib/gcc/arm-none-eabi/4.7.4\libgcc.a(_arm_fixunsdfsi.o)
 .bss           0x00000000        0x0 c:/isis/application/toolchain/bin/../lib/gcc/arm-none-eabi/4.7.4\libgcc.a(_arm_fixunsdfsi.o)
 .data          0x00000000        0x0 c:/isis/application/toolchain/bin/../lib/gcc/arm-none-eabi/4.7.4\libgcc.a(_arm_truncdfsf2.o)
 .bss           0x00000000        0x0 c:/isis/application/toolchain/bin/../lib/gcc/arm-none-eabi/4.7.4\libgcc.a(_arm_truncdfsf2.o)
 .data          0x00000000        0x0 c:/isis/application/toolchain/bin/../lib/gcc/arm-none-eabi/4.7.4\libgcc.a(_arm_addsubsf3.o)
 .bss           0x00000000        0x0 c:/isis/application/toolchain/bin/../lib/gcc/arm-none-eabi/4.7.4\libgcc.a(_arm_addsubsf3.o)
 .data          0x00000000        0x0 c:/isis/application/toolchain/bin/../lib/gcc/arm-none-eabi/4.7.4\libgcc.a(_arm_muldivsf3.o)
 .bss           0x00000000        0x0 c:/isis/application/toolchain/bin/../lib/gcc/arm-none-eabi/4.7.4\libgcc.a(_arm_muldivsf3.o)
 .text          0x00000000       0x54 c:/isis/application/toolchain/bin/../lib/gcc/arm-none-eabi/4.7.4\libgcc.a(_arm_fixunssfsi.o)
 .data          0x00000000        0x0 c:/isis/application/toolchain/bin/../lib/gcc/arm-none-eabi/4.7.4\libgcc.a(_arm_fixunssfsi.o)
 .bss           0x00000000        0x0 c:/isis/application/toolchain/bin/../lib/gcc/arm-none-eabi/4.7.4\libgcc.a(_arm_fixunssfsi.o)
 .ARM.attributes
                0x00000000       0x18 c:/isis/application/toolchain/bin/../lib/gcc/arm-none-eabi/4.7.4\libgcc.a(_arm_fixunssfsi.o)
 .text          0x00000000        0x0 c:/isis/application/toolchain/bin/../lib/gcc/arm-none-eabi/4.7.4/../../../../arm-none-eabi/lib\libc_s.a(lib_a-errno.o)
 .data          0x00000000        0x0 c:/isis/application/toolchain/bin/../lib/gcc/arm-none-eabi/4.7.4/../../../../arm-none-eabi/lib\libc_s.a(lib_a-errno.o)
 .bss           0x00000000        0x0 c:/isis/application/toolchain/bin/../lib/gcc/arm-none-eabi/4.7.4/../../../../arm-none-eabi/lib\libc_s.a(lib_a-errno.o)
 .text          0x00000000        0x0 c:/isis/application/toolchain/bin/../lib/gcc/arm-none-eabi/4.7.4/../../../../arm-none-eabi/lib\libc_s.a(lib_a-printf.o)
 .data          0x00000000        0x0 c:/isis/application/toolchain/bin/../lib/gcc/arm-none-eabi/4.7.4/../../../../arm-none-eabi/lib\libc_s.a(lib_a-printf.o)
 .bss           0x00000000        0x0 c:/isis/application/toolchain/bin/../lib/gcc/arm-none-eabi/4.7.4/../../../../arm-none-eabi/lib\libc_s.a(lib_a-printf.o)
 .text._printf_r
                0x00000000       0x40 c:/isis/application/toolchain/bin/../lib/gcc/arm-none-eabi/4.7.4/../../../../arm-none-eabi/lib\libc_s.a(lib_a-printf.o)
 .text          0x00000000        0x0 c:/isis/application/toolchain/bin/../lib/gcc/arm-none-eabi/4.7.4/../../../../arm-none-eabi/lib\libc_s.a(lib_a-puts.o)
 .data          0x00000000        0x0 c:/isis/application/toolchain/bin/../lib/gcc/arm-none-eabi/4.7.4/../../../../arm-none-eabi/lib\libc_s.a(lib_a-puts.o)
 .bss           0x00000000        0x0 c:/isis/application/toolchain/bin/../lib/gcc/arm-none-eabi/4.7.4/../../../../arm-none-eabi/lib\libc_s.a(lib_a-puts.o)
 .text._puts_r  0x00000000       0x58 c:/isis/application/toolchain/bin/../lib/gcc/arm-none-eabi/4.7.4/../../../../arm-none-eabi/lib\libc_s.a(lib_a-puts.o)
 .text          0x00000000        0x0 c:/isis/application/toolchain/bin/../lib/gcc/arm-none-eabi/4.7.4/../../../../arm-none-eabi/lib\libc_s.a(lib_a-snprintf.o)
 .data          0x00000000        0x0 c:/isis/application/toolchain/bin/../lib/gcc/arm-none-eabi/4.7.4/../../../../arm-none-eabi/lib\libc_s.a(lib_a-snprintf.o)
 .bss           0x00000000        0x0 c:/isis/application/toolchain/bin/../lib/gcc/arm-none-eabi/4.7.4/../../../../arm-none-eabi/lib\libc_s.a(lib_a-snprintf.o)
 .text._snprintf_r
                0x00000000       0x90 c:/isis/application/toolchain/bin/../lib/gcc/arm-none-eabi/4.7.4/../../../../arm-none-eabi/lib\libc_s.a(lib_a-snprintf.o)
 .text          0x00000000        0x0 c:/isis/application/toolchain/bin/../lib/gcc/arm-none-eabi/4.7.4/../../../../arm-none-eabi/lib\libc_s.a(lib_a-vfprintf.o)
 .data          0x00000000        0x0 c:/isis/application/toolchain/bin/../lib/gcc/arm-none-eabi/4.7.4/../../../../arm-none-eabi/lib\libc_s.a(lib_a-vfprintf.o)
 .bss           0x00000000        0x0 c:/isis/application/toolchain/bin/../lib/gcc/arm-none-eabi/4.7.4/../../../../arm-none-eabi/lib\libc_s.a(lib_a-vfprintf.o)
 .text.__sprint_r
                0x00000000       0xb0 c:/isis/application/toolchain/bin/../lib/gcc/arm-none-eabi/4.7.4/../../../../arm-none-eabi/lib\libc_s.a(lib_a-vfprintf.o)
 .text.vfprintf
                0x00000000       0x2c c:/isis/application/toolchain/bin/../lib/gcc/arm-none-eabi/4.7.4/../../../../arm-none-eabi/lib\libc_s.a(lib_a-vfprintf.o)
 .text          0x00000000        0x0 c:/isis/application/toolchain/bin/../lib/gcc/arm-none-eabi/4.7.4/../../../../arm-none-eabi/lib\libc_s.a(lib_a-wbuf.o)
 .data          0x00000000        0x0 c:/isis/application/toolchain/bin/../lib/gcc/arm-none-eabi/4.7.4/../../../../arm-none-eabi/lib\libc_s.a(lib_a-wbuf.o)
 .bss           0x00000000        0x0 c:/isis/application/toolchain/bin/../lib/gcc/arm-none-eabi/4.7.4/../../../../arm-none-eabi/lib\libc_s.a(lib_a-wbuf.o)
 .text.__swbuf  0x00000000       0x1c c:/isis/application/toolchain/bin/../lib/gcc/arm-none-eabi/4.7.4/../../../../arm-none-eabi/lib\libc_s.a(lib_a-wbuf.o)
 .text          0x00000000        0x0 c:/isis/application/toolchain/bin/../lib/gcc/arm-none-eabi/4.7.4/../../../../arm-none-eabi/lib\libc_s.a(lib_a-wsetup.o)
 .data          0x00000000        0x0 c:/isis/application/toolchain/bin/../lib/gcc/arm-none-eabi/4.7.4/../../../../arm-none-eabi/lib\libc_s.a(lib_a-wsetup.o)
 .bss           0x00000000        0x0 c:/isis/application/toolchain/bin/../lib/gcc/arm-none-eabi/4.7.4/../../../../arm-none-eabi/lib\libc_s.a(lib_a-wsetup.o)
 .text          0x00000000        0x0 c:/isis/application/toolchain/bin/../lib/gcc/arm-none-eabi/4.7.4/../../../../arm-none-eabi/lib\libc_s.a(lib_a-fflush.o)
 .data          0x00000000        0x0 c:/isis/application/toolchain/bin/../lib/gcc/arm-none-eabi/4.7.4/../../../../arm-none-eabi/lib\libc_s.a(lib_a-fflush.o)
 .bss           0x00000000        0x0 c:/isis/application/toolchain/bin/../lib/gcc/arm-none-eabi/4.7.4/../../../../arm-none-eabi/lib\libc_s.a(lib_a-fflush.o)
 .text.fflush   0x00000000       0x40 c:/isis/application/toolchain/bin/../lib/gcc/arm-none-eabi/4.7.4/../../../../arm-none-eabi/lib\libc_s.a(lib_a-fflush.o)
 .text          0x00000000        0x0 c:/isis/application/toolchain/bin/../lib/gcc/arm-none-eabi/4.7.4/../../../../arm-none-eabi/lib\libc_s.a(lib_a-findfp.o)
 .data          0x00000000        0x0 c:/isis/application/toolchain/bin/../lib/gcc/arm-none-eabi/4.7.4/../../../../arm-none-eabi/lib\libc_s.a(lib_a-findfp.o)
 .bss           0x00000000        0x0 c:/isis/application/toolchain/bin/../lib/gcc/arm-none-eabi/4.7.4/../../../../arm-none-eabi/lib\libc_s.a(lib_a-findfp.o)
 .text.__fp_lock
                0x00000000        0x8 c:/isis/application/toolchain/bin/../lib/gcc/arm-none-eabi/4.7.4/../../../../arm-none-eabi/lib\libc_s.a(lib_a-findfp.o)
 .text.__fp_unlock
                0x00000000        0x8 c:/isis/application/toolchain/bin/../lib/gcc/arm-none-eabi/4.7.4/../../../../arm-none-eabi/lib\libc_s.a(lib_a-findfp.o)
 .text._cleanup
                0x00000000       0x10 c:/isis/application/toolchain/bin/../lib/gcc/arm-none-eabi/4.7.4/../../../../arm-none-eabi/lib\libc_s.a(lib_a-findfp.o)
 .text.__sfp_lock_acquire
                0x00000000        0x4 c:/isis/application/toolchain/bin/../lib/gcc/arm-none-eabi/4.7.4/../../../../arm-none-eabi/lib\libc_s.a(lib_a-findfp.o)
 .text.__sfp_lock_release
                0x00000000        0x4 c:/isis/application/toolchain/bin/../lib/gcc/arm-none-eabi/4.7.4/../../../../arm-none-eabi/lib\libc_s.a(lib_a-findfp.o)
 .text.__sinit_lock_acquire
                0x00000000        0x4 c:/isis/application/toolchain/bin/../lib/gcc/arm-none-eabi/4.7.4/../../../../arm-none-eabi/lib\libc_s.a(lib_a-findfp.o)
 .text.__sinit_lock_release
                0x00000000        0x4 c:/isis/application/toolchain/bin/../lib/gcc/arm-none-eabi/4.7.4/../../../../arm-none-eabi/lib\libc_s.a(lib_a-findfp.o)
 .text.__fp_lock_all
                0x00000000       0x24 c:/isis/application/toolchain/bin/../lib/gcc/arm-none-eabi/4.7.4/../../../../arm-none-eabi/lib\libc_s.a(lib_a-findfp.o)
 .text.__fp_unlock_all
                0x00000000       0x24 c:/isis/application/toolchain/bin/../lib/gcc/arm-none-eabi/4.7.4/../../../../arm-none-eabi/lib\libc_s.a(lib_a-findfp.o)
 .text          0x00000000        0x0 c:/isis/application/toolchain/bin/../lib/gcc/arm-none-eabi/4.7.4/../../../../arm-none-eabi/lib\libc_s.a(lib_a-fputwc.o)
 .data          0x00000000        0x0 c:/isis/application/toolchain/bin/../lib/gcc/arm-none-eabi/4.7.4/../../../../arm-none-eabi/lib\libc_s.a(lib_a-fputwc.o)
 .bss           0x00000000        0x0 c:/isis/application/toolchain/bin/../lib/gcc/arm-none-eabi/4.7.4/../../../../arm-none-eabi/lib\libc_s.a(lib_a-fputwc.o)
 .text._fputwc_r
                0x00000000      0x138 c:/isis/application/toolchain/bin/../lib/gcc/arm-none-eabi/4.7.4/../../../../arm-none-eabi/lib\libc_s.a(lib_a-fputwc.o)
 .text.fputwc   0x00000000       0x84 c:/isis/application/toolchain/bin/../lib/gcc/arm-none-eabi/4.7.4/../../../../arm-none-eabi/lib\libc_s.a(lib_a-fputwc.o)
 .ARM.attributes
                0x00000000       0x30 c:/isis/application/toolchain/bin/../lib/gcc/arm-none-eabi/4.7.4/../../../../arm-none-eabi/lib\libc_s.a(lib_a-fputwc.o)
 .debug_frame   0x00000000       0x50 c:/isis/application/toolchain/bin/../lib/gcc/arm-none-eabi/4.7.4/../../../../arm-none-eabi/lib\libc_s.a(lib_a-fputwc.o)
 .text          0x00000000        0x0 c:/isis/application/toolchain/bin/../lib/gcc/arm-none-eabi/4.7.4/../../../../arm-none-eabi/lib\libc_s.a(lib_a-fvwrite.o)
 .data          0x00000000        0x0 c:/isis/application/toolchain/bin/../lib/gcc/arm-none-eabi/4.7.4/../../../../arm-none-eabi/lib\libc_s.a(lib_a-fvwrite.o)
 .bss           0x00000000        0x0 c:/isis/application/toolchain/bin/../lib/gcc/arm-none-eabi/4.7.4/../../../../arm-none-eabi/lib\libc_s.a(lib_a-fvwrite.o)
 .text.__sfvwrite_r
                0x00000000      0x460 c:/isis/application/toolchain/bin/../lib/gcc/arm-none-eabi/4.7.4/../../../../arm-none-eabi/lib\libc_s.a(lib_a-fvwrite.o)
 .ARM.attributes
                0x00000000       0x30 c:/isis/application/toolchain/bin/../lib/gcc/arm-none-eabi/4.7.4/../../../../arm-none-eabi/lib\libc_s.a(lib_a-fvwrite.o)
 .debug_frame   0x00000000       0x38 c:/isis/application/toolchain/bin/../lib/gcc/arm-none-eabi/4.7.4/../../../../arm-none-eabi/lib\libc_s.a(lib_a-fvwrite.o)
 .text          0x00000000        0x0 c:/isis/application/toolchain/bin/../lib/gcc/arm-none-eabi/4.7.4/../../../../arm-none-eabi/lib\libc_s.a(lib_a-fwalk.o)
 .data          0x00000000        0x0 c:/isis/application/toolchain/bin/../lib/gcc/arm-none-eabi/4.7.4/../../../../arm-none-eabi/lib\libc_s.a(lib_a-fwalk.o)
 .bss           0x00000000        0x0 c:/isis/application/toolchain/bin/../lib/gcc/arm-none-eabi/4.7.4/../../../../arm-none-eabi/lib\libc_s.a(lib_a-fwalk.o)
 .text._fwalk   0x00000000       0x78 c:/isis/application/toolchain/bin/../lib/gcc/arm-none-eabi/4.7.4/../../../../arm-none-eabi/lib\libc_s.a(lib_a-fwalk.o)
 .text._fwalk_reent
                0x00000000       0x7c c:/isis/application/toolchain/bin/../lib/gcc/arm-none-eabi/4.7.4/../../../../arm-none-eabi/lib\libc_s.a(lib_a-fwalk.o)
 .ARM.attributes
                0x00000000       0x30 c:/isis/application/toolchain/bin/../lib/gcc/arm-none-eabi/4.7.4/../../../../arm-none-eabi/lib\libc_s.a(lib_a-fwalk.o)
 .debug_frame   0x00000000       0x54 c:/isis/application/toolchain/bin/../lib/gcc/arm-none-eabi/4.7.4/../../../../arm-none-eabi/lib\libc_s.a(lib_a-fwalk.o)
 .text          0x00000000        0x0 c:/isis/application/toolchain/bin/../lib/gcc/arm-none-eabi/4.7.4/../../../../arm-none-eabi/lib\libc_s.a(lib_a-makebuf.o)
 .data          0x00000000        0x0 c:/isis/application/toolchain/bin/../lib/gcc/arm-none-eabi/4.7.4/../../../../arm-none-eabi/lib\libc_s.a(lib_a-makebuf.o)
 .bss           0x00000000        0x0 c:/isis/application/toolchain/bin/../lib/gcc/arm-none-eabi/4.7.4/../../../../arm-none-eabi/lib\libc_s.a(lib_a-makebuf.o)
 .text          0x00000000        0x0 c:/isis/application/toolchain/bin/../lib/gcc/arm-none-eabi/4.7.4/../../../../arm-none-eabi/lib\libc_s.a(lib_a-putc.o)
 .data          0x00000000        0x0 c:/isis/application/toolchain/bin/../lib/gcc/arm-none-eabi/4.7.4/../../../../arm-none-eabi/lib\libc_s.a(lib_a-putc.o)
 .bss           0x00000000        0x0 c:/isis/application/toolchain/bin/../lib/gcc/arm-none-eabi/4.7.4/../../../../arm-none-eabi/lib\libc_s.a(lib_a-putc.o)
 .text.putc     0x00000000       0x1c c:/isis/application/toolchain/bin/../lib/gcc/arm-none-eabi/4.7.4/../../../../arm-none-eabi/lib\libc_s.a(lib_a-putc.o)
 .text          0x00000000        0x0 c:/isis/application/toolchain/bin/../lib/gcc/arm-none-eabi/4.7.4/../../../../arm-none-eabi/lib\libc_s.a(lib_a-stdio.o)
 .data          0x00000000        0x0 c:/isis/application/toolchain/bin/../lib/gcc/arm-none-eabi/4.7.4/../../../../arm-none-eabi/lib\libc_s.a(lib_a-stdio.o)
 .bss           0x00000000        0x0 c:/isis/application/toolchain/bin/../lib/gcc/arm-none-eabi/4.7.4/../../../../arm-none-eabi/lib\libc_s.a(lib_a-stdio.o)
 .text.__seofread
                0x00000000        0x8 c:/isis/application/toolchain/bin/../lib/gcc/arm-none-eabi/4.7.4/../../../../arm-none-eabi/lib\libc_s.a(lib_a-stdio.o)
 .text          0x00000000        0x0 c:/isis/application/toolchain/bin/../lib/gcc/arm-none-eabi/4.7.4/../../../../arm-none-eabi/lib\libc_s.a(lib_a-wcrtomb.o)
 .data          0x00000000        0x0 c:/isis/application/toolchain/bin/../lib/gcc/arm-none-eabi/4.7.4/../../../../arm-none-eabi/lib\libc_s.a(lib_a-wcrtomb.o)
 .bss           0x00000000        0x0 c:/isis/application/toolchain/bin/../lib/gcc/arm-none-eabi/4.7.4/../../../../arm-none-eabi/lib\libc_s.a(lib_a-wcrtomb.o)
 .text._wcrtomb_r
                0x00000000       0x84 c:/isis/application/toolchain/bin/../lib/gcc/arm-none-eabi/4.7.4/../../../../arm-none-eabi/lib\libc_s.a(lib_a-wcrtomb.o)
 .text.wcrtomb  0x00000000       0x2c c:/isis/application/toolchain/bin/../lib/gcc/arm-none-eabi/4.7.4/../../../../arm-none-eabi/lib\libc_s.a(lib_a-wcrtomb.o)
 .ARM.attributes
                0x00000000       0x30 c:/isis/application/toolchain/bin/../lib/gcc/arm-none-eabi/4.7.4/../../../../arm-none-eabi/lib\libc_s.a(lib_a-wcrtomb.o)
 .debug_frame   0x00000000       0x4c c:/isis/application/toolchain/bin/../lib/gcc/arm-none-eabi/4.7.4/../../../../arm-none-eabi/lib\libc_s.a(lib_a-wcrtomb.o)
 .text          0x00000000        0x0 c:/isis/application/toolchain/bin/../lib/gcc/arm-none-eabi/4.7.4/../../../../arm-none-eabi/lib\libc_s.a(lib_a-wctomb_r.o)
 .data          0x00000000        0x0 c:/isis/application/toolchain/bin/../lib/gcc/arm-none-eabi/4.7.4/../../../../arm-none-eabi/lib\libc_s.a(lib_a-wctomb_r.o)
 .bss           0x00000000        0x0 c:/isis/application/toolchain/bin/../lib/gcc/arm-none-eabi/4.7.4/../../../../arm-none-eabi/lib\libc_s.a(lib_a-wctomb_r.o)
 .text.__ascii_wctomb
                0x00000000       0x2c c:/isis/application/toolchain/bin/../lib/gcc/arm-none-eabi/4.7.4/../../../../arm-none-eabi/lib\libc_s.a(lib_a-wctomb_r.o)
 .text._wctomb_r
                0x00000000       0x48 c:/isis/application/toolchain/bin/../lib/gcc/arm-none-eabi/4.7.4/../../../../arm-none-eabi/lib\libc_s.a(lib_a-wctomb_r.o)
 .data.__wctomb
                0x00000000        0x4 c:/isis/application/toolchain/bin/../lib/gcc/arm-none-eabi/4.7.4/../../../../arm-none-eabi/lib\libc_s.a(lib_a-wctomb_r.o)
 .ARM.attributes
                0x00000000       0x30 c:/isis/application/toolchain/bin/../lib/gcc/arm-none-eabi/4.7.4/../../../../arm-none-eabi/lib\libc_s.a(lib_a-wctomb_r.o)
 .debug_frame   0x00000000       0x44 c:/isis/application/toolchain/bin/../lib/gcc/arm-none-eabi/4.7.4/../../../../arm-none-eabi/lib\libc_s.a(lib_a-wctomb_r.o)
 .text          0x00000000        0x0 c:/isis/application/toolchain/bin/../lib/gcc/arm-none-eabi/4.7.4/../../../../arm-none-eabi/lib\libc_s.a(lib_a-writer.o)
 .data          0x00000000        0x0 c:/isis/application/toolchain/bin/../lib/gcc/arm-none-eabi/4.7.4/../../../../arm-none-eabi/lib\libc_s.a(lib_a-writer.o)
 .bss           0x00000000        0x0 c:/isis/application/toolchain/bin/../lib/gcc/arm-none-eabi/4.7.4/../../../../arm-none-eabi/lib\libc_s.a(lib_a-writer.o)
 .text          0x00000000        0x0 c:/isis/application/toolchain/bin/../lib/gcc/arm-none-eabi/4.7.4/../../../../arm-none-eabi/lib\libc_s.a(lib_a-closer.o)
 .data          0x00000000        0x0 c:/isis/application/toolchain/bin/../lib/gcc/arm-none-eabi/4.7.4/../../../../arm-none-eabi/lib\libc_s.a(lib_a-closer.o)
 .bss           0x00000000        0x0 c:/isis/application/toolchain/bin/../lib/gcc/arm-none-eabi/4.7.4/../../../../arm-none-eabi/lib\libc_s.a(lib_a-closer.o)
 .text          0x00000000        0x0 c:/isis/application/toolchain/bin/../lib/gcc/arm-none-eabi/4.7.4/../../../../arm-none-eabi/lib\libc_s.a(lib_a-fstatr.o)
 .data          0x00000000        0x0 c:/isis/application/toolchain/bin/../lib/gcc/arm-none-eabi/4.7.4/../../../../arm-none-eabi/lib\libc_s.a(lib_a-fstatr.o)
 .bss           0x00000000        0x0 c:/isis/application/toolchain/bin/../lib/gcc/arm-none-eabi/4.7.4/../../../../arm-none-eabi/lib\libc_s.a(lib_a-fstatr.o)
 .text          0x00000000        0x0 c:/isis/application/toolchain/bin/../lib/gcc/arm-none-eabi/4.7.4/../../../../arm-none-eabi/lib\libc_s.a(lib_a-isattyr.o)
 .data          0x00000000        0x0 c:/isis/application/toolchain/bin/../lib/gcc/arm-none-eabi/4.7.4/../../../../arm-none-eabi/lib\libc_s.a(lib_a-isattyr.o)
 .bss           0x00000000        0x0 c:/isis/application/toolchain/bin/../lib/gcc/arm-none-eabi/4.7.4/../../../../arm-none-eabi/lib\libc_s.a(lib_a-isattyr.o)
 .text          0x00000000        0x0 c:/isis/application/toolchain/bin/../lib/gcc/arm-none-eabi/4.7.4/../../../../arm-none-eabi/lib\libc_s.a(lib_a-lseekr.o)
 .data          0x00000000        0x0 c:/isis/application/toolchain/bin/../lib/gcc/arm-none-eabi/4.7.4/../../../../arm-none-eabi/lib\libc_s.a(lib_a-lseekr.o)
 .bss           0x00000000        0x0 c:/isis/application/toolchain/bin/../lib/gcc/arm-none-eabi/4.7.4/../../../../arm-none-eabi/lib\libc_s.a(lib_a-lseekr.o)
 .text          0x00000000        0x0 c:/isis/application/toolchain/bin/../lib/gcc/arm-none-eabi/4.7.4/../../../../arm-none-eabi/lib\libc_s.a(lib_a-readr.o)
 .data          0x00000000        0x0 c:/isis/application/toolchain/bin/../lib/gcc/arm-none-eabi/4.7.4/../../../../arm-none-eabi/lib\libc_s.a(lib_a-readr.o)
 .bss           0x00000000        0x0 c:/isis/application/toolchain/bin/../lib/gcc/arm-none-eabi/4.7.4/../../../../arm-none-eabi/lib\libc_s.a(lib_a-readr.o)

Memory Configuration

Name             Origin             Length             Attributes
sram0            0x00200000         0x00004000         w !xr
sram1            0x00300000         0x00004000         w !xr
sdram            0x20000000         0x02000000         w !xr
*default*        0x00000000         0xffffffff

Linker script and memory map

LOAD c:/isis/application/toolchain/bin/../lib/gcc/arm-none-eabi/4.7.4/../../../../arm-none-eabi/lib\libc_s.a
LOAD ./src/Demos/GomEPSdemo.o
LOAD ./src/Demos/IsisAntSdemo.o
LOAD ./src/Demos/IsisEPSdemo.o
LOAD ./src/Demos/IsisMTQv1demo.o
LOAD ./src/Demos/IsisMTQv2demo.o
LOAD ./src/Demos/IsisSPdemo.o
LOAD ./src/Demos/IsisSPv2demo.o
LOAD ./src/Demos/IsisTRXUVdemo.o
LOAD ./src/Demos/IsisTRXVUdemo.o
LOAD ./src/Demos/IsisTxSdemo.o
LOAD ./src/Demos/common.o
LOAD ./src/main.o
LOAD D:/Internship 2018/OBC Projects/SecondProject/satellite-subsystems/demo/..//satellite-subsystems/lib\libSatelliteSubsystemsD.a
LOAD c:/isis/application/toolchain/bin/../lib/gcc/arm-none-eabi/4.7.4/../../../../arm-none-eabi/lib\libm.a
LOAD D:/Internship 2018/OBC Projects/SecondProject/satellite-subsystems/demo/../..//hal/hal/lib\libHALD.a
LOAD D:/Internship 2018/OBC Projects/SecondProject/satellite-subsystems/demo/../..//hal/freertos/lib\libFreeRTOSD.a
LOAD D:/Internship 2018/OBC Projects/SecondProject/satellite-subsystems/demo/../..//hal/at91/lib\libAt91D.a
START GROUP
LOAD c:/isis/application/toolchain/bin/../lib/gcc/arm-none-eabi/4.7.4\libgcc.a
LOAD c:/isis/application/toolchain/bin/../lib/gcc/arm-none-eabi/4.7.4/../../../../arm-none-eabi/lib\libc_s.a
END GROUP

.fixed          0x20000000    0x31638
                0x20000000                . = ALIGN (0x4)
                0x20000000                _sfixed = .
 *(.startup)
 .startup       0x20000000      0x134 D:/Internship 2018/OBC Projects/SecondProject/satellite-subsystems/demo/../..//hal/at91/lib\libAt91D.a(board_cstartup.o)
                0x20000000                entry
 *(.text)
 .text          0x20000134       0x64 D:/Internship 2018/OBC Projects/SecondProject/satellite-subsystems/demo/../..//hal/at91/lib\libAt91D.a(cp15_asm.o)
                0x20000134                _readControlRegister
                0x20000140                _writeControlRegister
                0x20000148                _waitForInterrupt
                0x20000154                _writeTTB
                0x2000015c                _writeDomain
                0x20000164                _writeITLBLockdown
                0x2000016c                _prefetchICacheLine
                0x20000174                _flushDCache
                0x20000180                _flushWriteBuffer
                0x2000018c                _invalidateIDTLBs
 .text          0x20000198      0x114 c:/isis/application/toolchain/bin/../lib/gcc/arm-none-eabi/4.7.4\libgcc.a(_udivsi3.o)
                0x20000198                __aeabi_uidiv
                0x20000198                __udivsi3
                0x2000028c                __aeabi_uidivmod
 .text          0x200002ac      0x148 c:/isis/application/toolchain/bin/../lib/gcc/arm-none-eabi/4.7.4\libgcc.a(_divsi3.o)
                0x200002ac                __divsi3
                0x200002ac                __aeabi_idiv
                0x200003d4                __aeabi_idivmod
 .text          0x200003f4        0x4 c:/isis/application/toolchain/bin/../lib/gcc/arm-none-eabi/4.7.4\libgcc.a(_dvmd_tls.o)
                0x200003f4                __aeabi_idiv0
                0x200003f4                __aeabi_ldiv0
 .text          0x200003f8      0x41c c:/isis/application/toolchain/bin/../lib/gcc/arm-none-eabi/4.7.4\libgcc.a(_arm_addsubdf3.o)
                0x200003f8                __aeabi_drsub
                0x20000400                __aeabi_dsub
                0x20000400                __subdf3
                0x20000404                __aeabi_dadd
                0x20000404                __adddf3
                0x20000714                __floatunsidf
                0x20000714                __aeabi_ui2d
                0x20000738                __floatsidf
                0x20000738                __aeabi_i2d
                0x20000760                __aeabi_f2d
                0x20000760                __extendsfdf2
                0x200007a0                __floatundidf
                0x200007a0                __aeabi_ul2d
                0x200007b4                __floatdidf
                0x200007b4                __aeabi_l2d
 .text          0x20000814      0x49c c:/isis/application/toolchain/bin/../lib/gcc/arm-none-eabi/4.7.4\libgcc.a(_arm_muldivdf3.o)
                0x20000814                __aeabi_dmul
                0x20000814                __muldf3
                0x20000aa4                __divdf3
                0x20000aa4                __aeabi_ddiv
 .text          0x20000cb0      0x144 c:/isis/application/toolchain/bin/../lib/gcc/arm-none-eabi/4.7.4\libgcc.a(_arm_cmpdf2.o)
                0x20000cb0                __gtdf2
                0x20000cb0                __gedf2
                0x20000cb8                __ltdf2
                0x20000cb8                __ledf2
                0x20000cc0                __nedf2
                0x20000cc0                __eqdf2
                0x20000cc0                __cmpdf2
                0x20000d48                __aeabi_cdrcmple
                0x20000d64                __aeabi_cdcmpeq
                0x20000d64                __aeabi_cdcmple
                0x20000d7c                __aeabi_dcmpeq
                0x20000d94                __aeabi_dcmplt
                0x20000dac                __aeabi_dcmple
                0x20000dc4                __aeabi_dcmpge
                0x20000ddc                __aeabi_dcmpgt
 .text          0x20000df4       0x5c c:/isis/application/toolchain/bin/../lib/gcc/arm-none-eabi/4.7.4\libgcc.a(_arm_fixdfsi.o)
                0x20000df4                __aeabi_d2iz
                0x20000df4                __fixdfsi
 .text          0x20000e50       0x54 c:/isis/application/toolchain/bin/../lib/gcc/arm-none-eabi/4.7.4\libgcc.a(_arm_fixunsdfsi.o)
                0x20000e50                __aeabi_d2uiz
                0x20000e50                __fixunsdfsi
 .text          0x20000ea4       0xa0 c:/isis/application/toolchain/bin/../lib/gcc/arm-none-eabi/4.7.4\libgcc.a(_arm_truncdfsf2.o)
                0x20000ea4                __truncdfsf2
                0x20000ea4                __aeabi_d2f
 .text          0x20000f44      0x2ac c:/isis/application/toolchain/bin/../lib/gcc/arm-none-eabi/4.7.4\libgcc.a(_arm_addsubsf3.o)
                0x20000f44                __aeabi_frsub
                0x20000f4c                __subsf3
                0x20000f4c                __aeabi_fsub
                0x20000f50                __aeabi_fadd
                0x20000f50                __addsf3
                0x2000110c                __aeabi_ui2f
                0x2000110c                __floatunsisf
                0x20001114                __aeabi_i2f
                0x20001114                __floatsisf
                0x20001134                __aeabi_ul2f
                0x20001134                __floatundisf
                0x20001144                __aeabi_l2f
                0x20001144                __floatdisf
 .text          0x200011f0      0x2f8 c:/isis/application/toolchain/bin/../lib/gcc/arm-none-eabi/4.7.4\libgcc.a(_arm_muldivsf3.o)
                0x200011f0                __mulsf3
                0x200011f0                __aeabi_fmul
                0x20001388                __aeabi_fdiv
                0x20001388                __divsf3
 *(.text*)
 .text.__cvt    0x200014e8      0x138 c:/isis/application/toolchain/bin/../lib/gcc/arm-none-eabi/4.7.4/../../../../arm-none-eabi/lib\libc_s.a(lib_a-vfprintf_float.o)
                0x200014e8                __cvt
 .text.__exponent
                0x20001620       0xa8 c:/isis/application/toolchain/bin/../lib/gcc/arm-none-eabi/4.7.4/../../../../arm-none-eabi/lib\libc_s.a(lib_a-vfprintf_float.o)
                0x20001620                __exponent
 .text._printf_float
                0x200016c8      0x7dc c:/isis/application/toolchain/bin/../lib/gcc/arm-none-eabi/4.7.4/../../../../arm-none-eabi/lib\libc_s.a(lib_a-vfprintf_float.o)
                0x200016c8                _printf_float
 .text._printf_common
                0x20001ea4      0x174 c:/isis/application/toolchain/bin/../lib/gcc/arm-none-eabi/4.7.4/../../../../arm-none-eabi/lib\libc_s.a(lib_a-vfprintf_i.o)
                0x20001ea4                _printf_common
 .text._printf_i
                0x20002018      0x3c4 c:/isis/application/toolchain/bin/../lib/gcc/arm-none-eabi/4.7.4/../../../../arm-none-eabi/lib\libc_s.a(lib_a-vfprintf_i.o)
                0x20002018                _printf_i
 .text._scanf_float
                0x200023dc      0x5f4 c:/isis/application/toolchain/bin/../lib/gcc/arm-none-eabi/4.7.4/../../../../arm-none-eabi/lib\libc_s.a(lib_a-vfscanf_float.o)
                0x200023dc                _scanf_float
 .text.quorem   0x200029d0      0x1ac c:/isis/application/toolchain/bin/../lib/gcc/arm-none-eabi/4.7.4/../../../../arm-none-eabi/lib\libc_s.a(lib_a-dtoa.o)
 .text._dtoa_r  0x20002b7c     0x1268 c:/isis/application/toolchain/bin/../lib/gcc/arm-none-eabi/4.7.4/../../../../arm-none-eabi/lib\libc_s.a(lib_a-dtoa.o)
                0x20002b7c                _dtoa_r
 .text._localeconv_r
                0x20003de4        0xc c:/isis/application/toolchain/bin/../lib/gcc/arm-none-eabi/4.7.4/../../../../arm-none-eabi/lib\libc_s.a(lib_a-locale.o)
                0x20003de4                _localeconv_r
 .text.malloc   0x20003df0       0x20 c:/isis/application/toolchain/bin/../lib/gcc/arm-none-eabi/4.7.4/../../../../arm-none-eabi/lib\libc_s.a(lib_a-malloc.o)
                0x20003df0                malloc
 .text.free     0x20003e10       0x20 c:/isis/application/toolchain/bin/../lib/gcc/arm-none-eabi/4.7.4/../../../../arm-none-eabi/lib\libc_s.a(lib_a-malloc.o)
                0x20003e10                free
 .text._malloc_r
                0x20003e30       0xfc c:/isis/application/toolchain/bin/../lib/gcc/arm-none-eabi/4.7.4/../../../../arm-none-eabi/lib\libc_s.a(lib_a-mallocr.o)
                0x20003e30                _malloc_r
 .text.memcpy   0x20003f2c       0x20 c:/isis/application/toolchain/bin/../lib/gcc/arm-none-eabi/4.7.4/../../../../arm-none-eabi/lib\libc_s.a(lib_a-memcpy.o)
                0x20003f2c                memcpy
 .text._Balloc  0x20003f4c       0xcc c:/isis/application/toolchain/bin/../lib/gcc/arm-none-eabi/4.7.4/../../../../arm-none-eabi/lib\libc_s.a(lib_a-mprec.o)
                0x20003f4c                _Balloc
 .text._Bfree   0x20004018       0x5c c:/isis/application/toolchain/bin/../lib/gcc/arm-none-eabi/4.7.4/../../../../arm-none-eabi/lib\libc_s.a(lib_a-mprec.o)
                0x20004018                _Bfree
 .text.__multadd
                0x20004074       0xbc c:/isis/application/toolchain/bin/../lib/gcc/arm-none-eabi/4.7.4/../../../../arm-none-eabi/lib\libc_s.a(lib_a-mprec.o)
                0x20004074                __multadd
 .text.__s2b    0x20004130       0xd8 c:/isis/application/toolchain/bin/../lib/gcc/arm-none-eabi/4.7.4/../../../../arm-none-eabi/lib\libc_s.a(lib_a-mprec.o)
                0x20004130                __s2b
 .text.__hi0bits
                0x20004208       0x58 c:/isis/application/toolchain/bin/../lib/gcc/arm-none-eabi/4.7.4/../../../../arm-none-eabi/lib\libc_s.a(lib_a-mprec.o)
                0x20004208                __hi0bits
 .text.__lo0bits
                0x20004260       0x94 c:/isis/application/toolchain/bin/../lib/gcc/arm-none-eabi/4.7.4/../../../../arm-none-eabi/lib\libc_s.a(lib_a-mprec.o)
                0x20004260                __lo0bits
 .text.__i2b    0x200042f4       0x24 c:/isis/application/toolchain/bin/../lib/gcc/arm-none-eabi/4.7.4/../../../../arm-none-eabi/lib\libc_s.a(lib_a-mprec.o)
                0x200042f4                __i2b
 .text.__multiply
                0x20004318      0x1ac c:/isis/application/toolchain/bin/../lib/gcc/arm-none-eabi/4.7.4/../../../../arm-none-eabi/lib\libc_s.a(lib_a-mprec.o)
                0x20004318                __multiply
 .text.__pow5mult
                0x200044c4      0x10c c:/isis/application/toolchain/bin/../lib/gcc/arm-none-eabi/4.7.4/../../../../arm-none-eabi/lib\libc_s.a(lib_a-mprec.o)
                0x200044c4                __pow5mult
 .text.__lshift
                0x200045d0       0xf0 c:/isis/application/toolchain/bin/../lib/gcc/arm-none-eabi/4.7.4/../../../../arm-none-eabi/lib\libc_s.a(lib_a-mprec.o)
                0x200045d0                __lshift
 .text.__mcmp   0x200046c0       0x60 c:/isis/application/toolchain/bin/../lib/gcc/arm-none-eabi/4.7.4/../../../../arm-none-eabi/lib\libc_s.a(lib_a-mprec.o)
                0x200046c0                __mcmp
 .text.__mdiff  0x20004720      0x128 c:/isis/application/toolchain/bin/../lib/gcc/arm-none-eabi/4.7.4/../../../../arm-none-eabi/lib\libc_s.a(lib_a-mprec.o)
                0x20004720                __mdiff
 .text.__ulp    0x20004848       0x5c c:/isis/application/toolchain/bin/../lib/gcc/arm-none-eabi/4.7.4/../../../../arm-none-eabi/lib\libc_s.a(lib_a-mprec.o)
                0x20004848                __ulp
 .text.__b2d    0x200048a4       0xc8 c:/isis/application/toolchain/bin/../lib/gcc/arm-none-eabi/4.7.4/../../../../arm-none-eabi/lib\libc_s.a(lib_a-mprec.o)
                0x200048a4                __b2d
 .text.__d2b    0x2000496c       0xfc c:/isis/application/toolchain/bin/../lib/gcc/arm-none-eabi/4.7.4/../../../../arm-none-eabi/lib\libc_s.a(lib_a-mprec.o)
                0x2000496c                __d2b
 .text.__ratio  0x20004a68       0x70 c:/isis/application/toolchain/bin/../lib/gcc/arm-none-eabi/4.7.4/../../../../arm-none-eabi/lib\libc_s.a(lib_a-mprec.o)
                0x20004a68                __ratio
 .text.__copybits
                0x20004ad8       0x4c c:/isis/application/toolchain/bin/../lib/gcc/arm-none-eabi/4.7.4/../../../../arm-none-eabi/lib\libc_s.a(lib_a-mprec.o)
                0x20004ad8                __copybits
 .text.__any_on
                0x20004b24       0x7c c:/isis/application/toolchain/bin/../lib/gcc/arm-none-eabi/4.7.4/../../../../arm-none-eabi/lib\libc_s.a(lib_a-mprec.o)
                0x20004b24                __any_on
 .text.__fpclassifyd
                0x20004ba0       0x6c c:/isis/application/toolchain/bin/../lib/gcc/arm-none-eabi/4.7.4/../../../../arm-none-eabi/lib\libc_s.a(lib_a-s_fpclassify.o)
                0x20004ba0                __fpclassifyd
 .text._sbrk_r  0x20004c0c       0x3c c:/isis/application/toolchain/bin/../lib/gcc/arm-none-eabi/4.7.4/../../../../arm-none-eabi/lib\libc_s.a(lib_a-sbrkr.o)
                0x20004c0c                _sbrk_r
 .text.nanf     0x20004c48        0xc c:/isis/application/toolchain/bin/../lib/gcc/arm-none-eabi/4.7.4/../../../../arm-none-eabi/lib\libc_s.a(lib_a-sf_nan.o)
                0x20004c48                nanf
 .text.sprintf  0x20004c54       0x6c c:/isis/application/toolchain/bin/../lib/gcc/arm-none-eabi/4.7.4/../../../../arm-none-eabi/lib\libc_s.a(lib_a-sprintf.o)
                0x20004c54                siprintf
                0x20004c54                sprintf
 .text.strlen   0x20004cc0       0x1c c:/isis/application/toolchain/bin/../lib/gcc/arm-none-eabi/4.7.4/../../../../arm-none-eabi/lib\libc_s.a(lib_a-strlen.o)
                0x20004cc0                strlen
 .text.match    0x20004cdc       0x54 c:/isis/application/toolchain/bin/../lib/gcc/arm-none-eabi/4.7.4/../../../../arm-none-eabi/lib\libc_s.a(lib_a-strtod.o)
 .text._strtod_r
                0x20004d30     0x1168 c:/isis/application/toolchain/bin/../lib/gcc/arm-none-eabi/4.7.4/../../../../arm-none-eabi/lib\libc_s.a(lib_a-strtod.o)
                0x20004d30                _strtod_r
 .text._strtol_r
                0x20005e98      0x1b8 c:/isis/application/toolchain/bin/../lib/gcc/arm-none-eabi/4.7.4/../../../../arm-none-eabi/lib\libc_s.a(lib_a-strtol.o)
                0x20005e98                _strtol_r
 .text.__ssputc_r
                0x20006050      0x10c c:/isis/application/toolchain/bin/../lib/gcc/arm-none-eabi/4.7.4/../../../../arm-none-eabi/lib\libc_s.a(lib_a-svfprintf.o)
                0x20006050                __ssputc_r
 .text._svfprintf_r
                0x2000615c      0x328 c:/isis/application/toolchain/bin/../lib/gcc/arm-none-eabi/4.7.4/../../../../arm-none-eabi/lib\libc_s.a(lib_a-svfprintf.o)
                0x2000615c                _svfiprintf_r
                0x2000615c                _svfprintf_r
 .text._calloc_r
                0x20006484       0x2c c:/isis/application/toolchain/bin/../lib/gcc/arm-none-eabi/4.7.4/../../../../arm-none-eabi/lib\libc_s.a(lib_a-callocr.o)
                0x20006484                _calloc_r
 .text._free_r  0x200064b0      0x108 c:/isis/application/toolchain/bin/../lib/gcc/arm-none-eabi/4.7.4/../../../../arm-none-eabi/lib\libc_s.a(lib_a-freer.o)
                0x200064b0                _free_r
 .text.rshift   0x200065b8       0xb0 c:/isis/application/toolchain/bin/../lib/gcc/arm-none-eabi/4.7.4/../../../../arm-none-eabi/lib\libc_s.a(lib_a-gdtoa-gethex.o)
 .text.htinit.constprop.0
                0x20006668       0x34 c:/isis/application/toolchain/bin/../lib/gcc/arm-none-eabi/4.7.4/../../../../arm-none-eabi/lib\libc_s.a(lib_a-gdtoa-gethex.o)
 .text.__hexdig_init
                0x2000669c       0x38 c:/isis/application/toolchain/bin/../lib/gcc/arm-none-eabi/4.7.4/../../../../arm-none-eabi/lib\libc_s.a(lib_a-gdtoa-gethex.o)
                0x2000669c                __hexdig_init
 .text.__gethex
                0x200066d4      0x6cc c:/isis/application/toolchain/bin/../lib/gcc/arm-none-eabi/4.7.4/../../../../arm-none-eabi/lib\libc_s.a(lib_a-gdtoa-gethex.o)
                0x200066d4                __gethex
 .text.L_shift  0x20006da0       0x38 c:/isis/application/toolchain/bin/../lib/gcc/arm-none-eabi/4.7.4/../../../../arm-none-eabi/lib\libc_s.a(lib_a-gdtoa-hexnan.o)
 .text.__hexnan
                0x20006dd8      0x1d8 c:/isis/application/toolchain/bin/../lib/gcc/arm-none-eabi/4.7.4/../../../../arm-none-eabi/lib\libc_s.a(lib_a-gdtoa-hexnan.o)
                0x20006dd8                __hexnan
 .text.memchr   0x20006fb0       0x34 c:/isis/application/toolchain/bin/../lib/gcc/arm-none-eabi/4.7.4/../../../../arm-none-eabi/lib\libc_s.a(lib_a-memchr.o)
                0x20006fb0                memchr
 .text.memset   0x20006fe4       0x1c c:/isis/application/toolchain/bin/../lib/gcc/arm-none-eabi/4.7.4/../../../../arm-none-eabi/lib\libc_s.a(lib_a-memset.o)
                0x20006fe4                memset
 .text._realloc_r
                0x20007000       0x80 c:/isis/application/toolchain/bin/../lib/gcc/arm-none-eabi/4.7.4/../../../../arm-none-eabi/lib\libc_s.a(lib_a-reallocr.o)
                0x20007000                _realloc_r
 .text.strncmp  0x20007080       0x64 c:/isis/application/toolchain/bin/../lib/gcc/arm-none-eabi/4.7.4/../../../../arm-none-eabi/lib\libc_s.a(lib_a-strncmp.o)
                0x20007080                strncmp
 .text._malloc_usable_size_r
                0x200070e4       0x1c c:/isis/application/toolchain/bin/../lib/gcc/arm-none-eabi/4.7.4/../../../../arm-none-eabi/lib\libc_s.a(lib_a-msizer.o)
                0x200070e4                _malloc_usable_size_r
 .text.EPS_TelemetryHKbasic
                0x20007100      0x148 ./src/Demos/GomEPSdemo.o
 .text.EPS_TelemetryHKwdt
                0x20007248       0xfc ./src/Demos/GomEPSdemo.o
 .text.EPS_TelemetryHKout
                0x20007344      0x314 ./src/Demos/GomEPSdemo.o
 .text.EPS_TelemetryHKvi
                0x20007658       0xf8 ./src/Demos/GomEPSdemo.o
 .text.EPS_TelemetryHKGeneral
                0x20007750      0x578 ./src/Demos/GomEPSdemo.o
 .text.EPS_TelemetryHKParam
                0x20007cc8      0x304 ./src/Demos/GomEPSdemo.o
 .text.selectAndExecuteGomEPSDemoTest
                0x20007fcc      0x138 ./src/Demos/GomEPSdemo.o
 .text.GomspaceEpsDemo
                0x20008104       0x3c ./src/Demos/GomEPSdemo.o
 .text.initmain
                0x20008140       0x2c ./src/Demos/GomEPSdemo.o
 .text.GomEPStest
                0x2000816c       0x1c ./src/Demos/GomEPSdemo.o
                0x2000816c                GomEPStest
 .text.resetAntSTest
                0x20008188       0x7c ./src/Demos/IsisAntSdemo.o
 .text.printDeploymentStatus
                0x20008204       0x60 ./src/Demos/IsisAntSdemo.o
 .text.getStatusAntSTest
                0x20008264       0xf0 ./src/Demos/IsisAntSdemo.o
 .text.tempAntSTest
                0x20008354      0x184 ./src/Demos/IsisAntSdemo.o
 .text.uptimeAntSTest
                0x200084d8       0x84 ./src/Demos/IsisAntSdemo.o
 .text.telemAntSTest
                0x2000855c      0x1b8 ./src/Demos/IsisAntSdemo.o
 .text.autoDeploymentAntSTest
                0x20008714       0x84 ./src/Demos/IsisAntSdemo.o
 .text.selectAndExecuteAntSDemoTest
                0x20008798      0x190 ./src/Demos/IsisAntSdemo.o
 .text.initmain
                0x20008928       0x70 ./src/Demos/IsisAntSdemo.o
 .text.Ants_mainDemo
                0x20008998       0x3c ./src/Demos/IsisAntSdemo.o
 .text.AntStest
                0x200089d4       0x1c ./src/Demos/IsisAntSdemo.o
                0x200089d4                AntStest
 .text._parse_resp
                0x200089f0      0x1ec ./src/Demos/IsisEPSdemo.o
 .text._get_channel_flagfield
                0x20008bdc       0xf0 ./src/Demos/IsisEPSdemo.o
 .text._get_channel_index
                0x20008ccc       0xdc ./src/Demos/IsisEPSdemo.o
 .text._get_cdb_board_selection
                0x20008da8       0xe0 ./src/Demos/IsisEPSdemo.o
 .text._hardReset
                0x20008e88       0xc8 ./src/Demos/IsisEPSdemo.o
 .text._noOperation
                0x20008f50       0xbc ./src/Demos/IsisEPSdemo.o
 .text._cancelOperation
                0x2000900c       0xbc ./src/Demos/IsisEPSdemo.o
 .text._resetWDT
                0x200090c8       0xd4 ./src/Demos/IsisEPSdemo.o
 .text._outputBusGroupOn
                0x2000919c      0x164 ./src/Demos/IsisEPSdemo.o
 .text._outputBusGroupOff
                0x20009300      0x164 ./src/Demos/IsisEPSdemo.o
 .text._outputBusGroupState
                0x20009464      0x17c ./src/Demos/IsisEPSdemo.o
 .text._outputBus3v3On
                0x200095e0      0x128 ./src/Demos/IsisEPSdemo.o
 .text._outputBus3v3Off
                0x20009708      0x128 ./src/Demos/IsisEPSdemo.o
 .text._outputBus5vOn
                0x20009830      0x128 ./src/Demos/IsisEPSdemo.o
 .text._outputBus5vOff
                0x20009958      0x128 ./src/Demos/IsisEPSdemo.o
 .text._outputBusHvOn
                0x20009a80      0x11c ./src/Demos/IsisEPSdemo.o
 .text._outputBusHvOff
                0x20009b9c      0x11c ./src/Demos/IsisEPSdemo.o
 .text._getSystemState
                0x20009cb8      0x36c ./src/Demos/IsisEPSdemo.o
 .text._getRawHKDataMB
                0x2000a024      0x574 ./src/Demos/IsisEPSdemo.o
 .text._getEngHKDataMB
                0x2000a598      0x58c ./src/Demos/IsisEPSdemo.o
 .text._getRAEngHKDataMB
                0x2000ab24      0x568 ./src/Demos/IsisEPSdemo.o
 .text._getRawHKDataCDB
                0x2000b08c      0x364 ./src/Demos/IsisEPSdemo.o
 .text._getEngHKDataCDB
                0x2000b3f0      0x378 ./src/Demos/IsisEPSdemo.o
 .text._getRAEngHKDataCDB
                0x2000b768      0x354 ./src/Demos/IsisEPSdemo.o
 .text.show_LOState
                0x2000babc      0x1a8 ./src/Demos/IsisEPSdemo.o
 .text._getLOState3V3
                0x2000bc64      0x198 ./src/Demos/IsisEPSdemo.o
 .text._getLOState5V
                0x2000bdfc      0x198 ./src/Demos/IsisEPSdemo.o
 .text._getLOStateBV
                0x2000bf94      0x198 ./src/Demos/IsisEPSdemo.o
 .text._getLOStateHV
                0x2000c12c      0x198 ./src/Demos/IsisEPSdemo.o
 .text._getParameter
                0x2000c2c4      0x140 ./src/Demos/IsisEPSdemo.o
 .text._setParameter
                0x2000c404      0x2b0 ./src/Demos/IsisEPSdemo.o
 .text._resetParameter
                0x2000c6b4      0x14c ./src/Demos/IsisEPSdemo.o
 .text._resetConfig
                0x2000c800       0xc8 ./src/Demos/IsisEPSdemo.o
 .text._loadConfig
                0x2000c8c8       0xbc ./src/Demos/IsisEPSdemo.o
 .text._saveConfig
                0x2000c984      0x1bc ./src/Demos/IsisEPSdemo.o
 .text._selectAndExecuteDemoTest
                0x2000cb40      0x65c ./src/Demos/IsisEPSdemo.o
 .text._initMain
                0x2000d19c       0x68 ./src/Demos/IsisEPSdemo.o
 .text._mainDemo
                0x2000d204       0x3c ./src/Demos/IsisEPSdemo.o
 .text.IsisEPStest
                0x2000d240       0x28 ./src/Demos/IsisEPSdemo.o
                0x2000d240                IsisEPStest
 .text.getTemperature
                0x2000d268       0x54 ./src/Demos/IsisMTQv1demo.o
 .text.selectAndExecuteMtqDemoTest
                0x2000d2bc       0xa8 ./src/Demos/IsisMTQv1demo.o
 .text.initmain
                0x2000d364       0x2c ./src/Demos/IsisMTQv1demo.o
 .text.Mtqv1_mainDemo
                0x2000d390       0x3c ./src/Demos/IsisMTQv1demo.o
 .text.MTQv1test
                0x2000d3cc       0x1c ./src/Demos/IsisMTQv1demo.o
                0x2000d3cc                MTQv1test
 .text._parse_resp
                0x2000d3e8      0x23c ./src/Demos/IsisMTQv2demo.o
 .text._parse_selftest_step
                0x2000d624      0x530 ./src/Demos/IsisMTQv2demo.o
 .text._get_axis_inputs
                0x2000db54      0x2c4 ./src/Demos/IsisMTQv2demo.o
 .text._softReset
                0x2000de18       0xd4 ./src/Demos/IsisMTQv2demo.o
 .text._noOperation
                0x2000deec       0xc8 ./src/Demos/IsisMTQv2demo.o
 .text._cancelOperation
                0x2000dfb4       0xbc ./src/Demos/IsisMTQv2demo.o
 .text._startMTMMeasurement
                0x2000e070       0xdc ./src/Demos/IsisMTQv2demo.o
 .text._startMTQActuationCurrent
                0x2000e14c      0x10c ./src/Demos/IsisMTQv2demo.o
 .text._startMTQActuationDipole
                0x2000e258      0x128 ./src/Demos/IsisMTQv2demo.o
 .text._startMTQActuationPWM
                0x2000e380      0x10c ./src/Demos/IsisMTQv2demo.o
 .text._startSelfTest
                0x2000e48c      0x208 ./src/Demos/IsisMTQv2demo.o
 .text._startDetumble
                0x2000e694      0x180 ./src/Demos/IsisMTQv2demo.o
 .text._getSystemState
                0x2000e814      0x204 ./src/Demos/IsisMTQv2demo.o
 .text._getRawMTMData
                0x2000ea18      0x130 ./src/Demos/IsisMTQv2demo.o
 .text._getCalMTMData
                0x2000eb48      0x130 ./src/Demos/IsisMTQv2demo.o
 .text._getCoilCurrent
                0x2000ec78      0x120 ./src/Demos/IsisMTQv2demo.o
 .text._getCoilTemperature
                0x2000ed98      0x120 ./src/Demos/IsisMTQv2demo.o
 .text._getCmdActuationDipole
                0x2000eeb8      0x12c ./src/Demos/IsisMTQv2demo.o
 .text._getSelftestDataSingleAxis
                0x2000efe4      0x148 ./src/Demos/IsisMTQv2demo.o
 .text._getSelftestDataAllAxis
                0x2000f12c      0x1e0 ./src/Demos/IsisMTQv2demo.o
 .text._getDetumbleData
                0x2000f30c      0x220 ./src/Demos/IsisMTQv2demo.o
 .text._getRawHKData
                0x2000f52c      0x1f8 ./src/Demos/IsisMTQv2demo.o
 .text._getEngHKData
                0x2000f724      0x228 ./src/Demos/IsisMTQv2demo.o
 .text._getParameter
                0x2000f94c      0x140 ./src/Demos/IsisMTQv2demo.o
 .text._setParameter
                0x2000fa8c      0x290 ./src/Demos/IsisMTQv2demo.o
 .text._resetParameter
                0x2000fd1c      0x14c ./src/Demos/IsisMTQv2demo.o
 .text._selectAndExecuteDemoTest
                0x2000fe68      0x540 ./src/Demos/IsisMTQv2demo.o
 .text._initMain
                0x200103a8       0x68 ./src/Demos/IsisMTQv2demo.o
 .text._mainDemo
                0x20010410       0x3c ./src/Demos/IsisMTQv2demo.o
 .text.IsisMTQv2test
                0x2001044c       0x28 ./src/Demos/IsisMTQv2demo.o
                0x2001044c                IsisMTQv2test
 .text.SolarPanel_Temperature
                0x20010474      0x268 ./src/Demos/IsisSPdemo.o
 .text.selectAndExecuteSolarPanelsDemoTest
                0x200106dc       0xa8 ./src/Demos/IsisSPdemo.o
 .text.SolarPaneltest
                0x20010784       0x44 ./src/Demos/IsisSPdemo.o
                0x20010784                SolarPaneltest
 .text.SolarPanelv2_Temperature
                0x200107c8       0xfc ./src/Demos/IsisSPv2demo.o
                0x200107c8                SolarPanelv2_Temperature
 .text.selectAndExecuteSolarPanelsv2DemoTest
                0x200108c4       0xa8 ./src/Demos/IsisSPv2demo.o
                0x200108c4                selectAndExecuteSolarPanelsv2DemoTest
 .text.SolarPanelsv2_mainDemo
                0x2001096c       0x3c ./src/Demos/IsisSPv2demo.o
                0x2001096c                SolarPanelsv2_mainDemo
 .text.SolarPanelv2test
                0x200109a8       0x74 ./src/Demos/IsisSPv2demo.o
                0x200109a8                SolarPanelv2test
 .text.resetUVTest
                0x20010a1c       0x28 ./src/Demos/IsisTRXUVdemo.o
 .text.itc_sendDefClSignTest
                0x20010a44       0xe8 ./src/Demos/IsisTRXUVdemo.o
 .text.itc_sendMsgCWTest
                0x20010b2c       0xe8 ./src/Demos/IsisTRXUVdemo.o
 .text.itc_toggleIdleStateTest
                0x20010c14       0x5c ./src/Demos/IsisTRXUVdemo.o
 .text.itc_setTxBitrate9600Test
                0x20010c70       0x20 ./src/Demos/IsisTRXUVdemo.o
 .text.itc_setTxBitrate1200Test
                0x20010c90       0x20 ./src/Demos/IsisTRXUVdemo.o
 .text.imc_getFrameCountTest
                0x20010cb0       0x74 ./src/Demos/IsisTRXUVdemo.o
 .text.imc_getFrameCmdTest
                0x20010d24      0x190 ./src/Demos/IsisTRXUVdemo.o
 .text.imc_getAllTelemTest
                0x20010eb4      0x718 ./src/Demos/IsisTRXUVdemo.o
 .text.selectAndExecuteTRXUVDemoTest
                0x200115cc      0x18c ./src/Demos/IsisTRXUVdemo.o
 .text.initmain
                0x20011758       0x64 ./src/Demos/IsisTRXUVdemo.o
 .text.TRXUV_mainDemo
                0x200117bc       0x3c ./src/Demos/IsisTRXUVdemo.o
 .text.TRXUVtest
                0x200117f8       0x38 ./src/Demos/IsisTRXUVdemo.o
                0x200117f8                TRXUVtest
 .text.softResetVUTest
                0x20011830       0x40 ./src/Demos/IsisTRXVUdemo.o
 .text.hardResetVUTest
                0x20011870       0x40 ./src/Demos/IsisTRXVUdemo.o
 .text.vutc_sendDefClSignTest
                0x200118b0       0xe8 ./src/Demos/IsisTRXVUdemo.o
 .text.vutc_toggleIdleStateTest
                0x20011998       0x5c ./src/Demos/IsisTRXVUdemo.o
 .text.vutc_setTxBitrate9600Test
                0x200119f4       0x20 ./src/Demos/IsisTRXVUdemo.o
 .text.vutc_setTxBitrate1200Test
                0x20011a14       0x20 ./src/Demos/IsisTRXVUdemo.o
 .text.vurc_getFrameCountTest
                0x20011a34       0x74 ./src/Demos/IsisTRXVUdemo.o
 .text.vurc_getFrameCmdTest
                0x20011aa8      0x198 ./src/Demos/IsisTRXVUdemo.o
 .text.vurc_getRxTelemTest
                0x20011c40      0x41c ./src/Demos/IsisTRXVUdemo.o
 .text.vurc_getTxTelemTest
                0x2001205c      0x258 ./src/Demos/IsisTRXVUdemo.o
 .text.selectAndExecuteTRXVUDemoTest
                0x200122b4      0x1a8 ./src/Demos/IsisTRXVUdemo.o
 .text.initmain
                0x2001245c       0x5c ./src/Demos/IsisTRXVUdemo.o
 .text.TRXVU_mainDemo
                0x200124b8       0x3c ./src/Demos/IsisTRXVUdemo.o
 .text.TRXVUtest
                0x200124f4       0x1c ./src/Demos/IsisTRXVUdemo.o
                0x200124f4                TRXVUtest
 .text.softResetTxsTest
                0x20012510       0x28 ./src/Demos/IsisTxSdemo.o
 .text.halfMaxBitrateTxsTest
                0x20012538       0x2c ./src/Demos/IsisTxSdemo.o
 .text.MaxBitrateTxsTest
                0x20012564       0x2c ./src/Demos/IsisTxSdemo.o
 .text.level4_5dBTxsTest
                0x20012590       0x2c ./src/Demos/IsisTxSdemo.o
 .text.level13_5dBTxsTest
                0x200125bc       0x2c ./src/Demos/IsisTxSdemo.o
 .text.toggleTxsStateTest
                0x200125e8       0x5c ./src/Demos/IsisTxSdemo.o
 .text.addDefaultCallsignFrames
                0x20012644       0xfc ./src/Demos/IsisTxSdemo.o
 .text.getAllTelemTxSTest
                0x20012740      0x568 ./src/Demos/IsisTxSdemo.o
 .text.selectAndExecuteTxSDemoTest
                0x20012ca8      0x170 ./src/Demos/IsisTxSdemo.o
 .text.initmain
                0x20012e18       0x3c ./src/Demos/IsisTxSdemo.o
 .text.TxS_mainDemo
                0x20012e54       0x3c ./src/Demos/IsisTxSdemo.o
 .text.TxStest  0x20012e90       0x1c ./src/Demos/IsisTxSdemo.o
                0x20012e90                TxStest
 .text.ing_interact
                0x20012eac      0x450 ./src/Demos/common.o
                0x20012eac                ing_interact
 .text.ing_parse
                0x200132fc      0x8f4 ./src/Demos/common.o
                0x200132fc                ing_parse
 .text.ing      0x20013bf0       0xa4 ./src/Demos/common.o
                0x20013bf0                ing
 .text.config_param_info
                0x20013c94      0xb00 ./src/Demos/common.o
                0x20013c94                config_param_info
 .text.selectAndExecuteTest
                0x20014794      0x210 ./src/main.o
                0x20014794                selectAndExecuteTest
 .text.taskMain
                0x200149a4       0x5c ./src/main.o
                0x200149a4                taskMain
 .text.main     0x20014a00      0x1a8 ./src/main.o
                0x20014a00                main
 .text.GomEpsInitialize
                0x20014ba8      0x148 D:/Internship 2018/OBC Projects/SecondProject/satellite-subsystems/demo/..//satellite-subsystems/lib\libSatelliteSubsystemsD.a(GomEPS.o)
                0x20014ba8                GomEpsInitialize
 .text.makeEPStransfer
                0x20014cf0       0x3c D:/Internship 2018/OBC Projects/SecondProject/satellite-subsystems/demo/..//satellite-subsystems/lib\libSatelliteSubsystemsD.a(GomEPS.o)
 .text.GomEpsGetHkData_param
                0x20014d2c      0x29c D:/Internship 2018/OBC Projects/SecondProject/satellite-subsystems/demo/..//satellite-subsystems/lib\libSatelliteSubsystemsD.a(GomEPS.o)
                0x20014d2c                GomEpsGetHkData_param
 .text.GomEpsGetHkData_general
                0x20014fc8      0x45c D:/Internship 2018/OBC Projects/SecondProject/satellite-subsystems/demo/..//satellite-subsystems/lib\libSatelliteSubsystemsD.a(GomEPS.o)
                0x20014fc8                GomEpsGetHkData_general
 .text.GomEpsGetHkData_vi
                0x20015424      0x188 D:/Internship 2018/OBC Projects/SecondProject/satellite-subsystems/demo/..//satellite-subsystems/lib\libSatelliteSubsystemsD.a(GomEPS.o)
                0x20015424                GomEpsGetHkData_vi
 .text.GomEpsGetHkData_out
                0x200155ac      0x21c D:/Internship 2018/OBC Projects/SecondProject/satellite-subsystems/demo/..//satellite-subsystems/lib\libSatelliteSubsystemsD.a(GomEPS.o)
                0x200155ac                GomEpsGetHkData_out
 .text.GomEpsGetHkData_wdt
                0x200157c8      0x2b4 D:/Internship 2018/OBC Projects/SecondProject/satellite-subsystems/demo/..//satellite-subsystems/lib\libSatelliteSubsystemsD.a(GomEPS.o)
                0x200157c8                GomEpsGetHkData_wdt
 .text.GomEpsGetHkData_basic
                0x20015a7c      0x22c D:/Internship 2018/OBC Projects/SecondProject/satellite-subsystems/demo/..//satellite-subsystems/lib\libSatelliteSubsystemsD.a(GomEPS.o)
                0x20015a7c                GomEpsGetHkData_basic
 .text.makeAntStransfer
                0x20015ca8       0x4c D:/Internship 2018/OBC Projects/SecondProject/satellite-subsystems/demo/..//satellite-subsystems/lib\libSatelliteSubsystemsD.a(IsisAntS.o)
 .text.checkInputsValid
                0x20015cf4       0x7c D:/Internship 2018/OBC Projects/SecondProject/satellite-subsystems/demo/..//satellite-subsystems/lib\libSatelliteSubsystemsD.a(IsisAntS.o)
 .text.IsisAntS_initialize
                0x20015d70      0x24c D:/Internship 2018/OBC Projects/SecondProject/satellite-subsystems/demo/..//satellite-subsystems/lib\libSatelliteSubsystemsD.a(IsisAntS.o)
                0x20015d70                IsisAntS_initialize
 .text.IsisAntS_setArmStatus
                0x20015fbc      0x104 D:/Internship 2018/OBC Projects/SecondProject/satellite-subsystems/demo/..//satellite-subsystems/lib\libSatelliteSubsystemsD.a(IsisAntS.o)
                0x20015fbc                IsisAntS_setArmStatus
 .text.IsisAntS_getStatusData
                0x200160c0      0x120 D:/Internship 2018/OBC Projects/SecondProject/satellite-subsystems/demo/..//satellite-subsystems/lib\libSatelliteSubsystemsD.a(IsisAntS.o)
                0x200160c0                IsisAntS_getStatusData
 .text.IsisAntS_getTemperature
                0x200161e0      0x120 D:/Internship 2018/OBC Projects/SecondProject/satellite-subsystems/demo/..//satellite-subsystems/lib\libSatelliteSubsystemsD.a(IsisAntS.o)
                0x200161e0                IsisAntS_getTemperature
 .text.IsisAntS_getUptime
                0x20016300      0x120 D:/Internship 2018/OBC Projects/SecondProject/satellite-subsystems/demo/..//satellite-subsystems/lib\libSatelliteSubsystemsD.a(IsisAntS.o)
                0x20016300                IsisAntS_getUptime
 .text.IsisAntS_getAlltelemetry
                0x20016420      0x120 D:/Internship 2018/OBC Projects/SecondProject/satellite-subsystems/demo/..//satellite-subsystems/lib\libSatelliteSubsystemsD.a(IsisAntS.o)
                0x20016420                IsisAntS_getAlltelemetry
 .text.IsisAntS_reset
                0x20016540      0x104 D:/Internship 2018/OBC Projects/SecondProject/satellite-subsystems/demo/..//satellite-subsystems/lib\libSatelliteSubsystemsD.a(IsisAntS.o)
                0x20016540                IsisAntS_reset
 .text.IsisAntS_autoDeployment
                0x20016644      0x114 D:/Internship 2018/OBC Projects/SecondProject/satellite-subsystems/demo/..//satellite-subsystems/lib\libSatelliteSubsystemsD.a(IsisAntS.o)
                0x20016644                IsisAntS_autoDeployment
 .text._make_IsisEPStransfer
                0x20016758       0x3c D:/Internship 2018/OBC Projects/SecondProject/satellite-subsystems/demo/..//satellite-subsystems/lib\libSatelliteSubsystemsD.a(IsisEPS.o)
 .text.IsisEPS_initialize
                0x20016794      0x18c D:/Internship 2018/OBC Projects/SecondProject/satellite-subsystems/demo/..//satellite-subsystems/lib\libSatelliteSubsystemsD.a(IsisEPS.o)
                0x20016794                IsisEPS_initialize
 .text.IsisEPS_hardReset
                0x20016920       0xc8 D:/Internship 2018/OBC Projects/SecondProject/satellite-subsystems/demo/..//satellite-subsystems/lib\libSatelliteSubsystemsD.a(IsisEPS.o)
                0x20016920                IsisEPS_hardReset
 .text.IsisEPS_noOperation
                0x200169e8       0xac D:/Internship 2018/OBC Projects/SecondProject/satellite-subsystems/demo/..//satellite-subsystems/lib\libSatelliteSubsystemsD.a(IsisEPS.o)
                0x200169e8                IsisEPS_noOperation
 .text.IsisEPS_cancelOperation
                0x20016a94       0xac D:/Internship 2018/OBC Projects/SecondProject/satellite-subsystems/demo/..//satellite-subsystems/lib\libSatelliteSubsystemsD.a(IsisEPS.o)
                0x20016a94                IsisEPS_cancelOperation
 .text.IsisEPS_resetWDT
                0x20016b40       0xac D:/Internship 2018/OBC Projects/SecondProject/satellite-subsystems/demo/..//satellite-subsystems/lib\libSatelliteSubsystemsD.a(IsisEPS.o)
                0x20016b40                IsisEPS_resetWDT
 .text.IsisEPS_outputBusGroupOn
                0x20016bec       0xc4 D:/Internship 2018/OBC Projects/SecondProject/satellite-subsystems/demo/..//satellite-subsystems/lib\libSatelliteSubsystemsD.a(IsisEPS.o)
                0x20016bec                IsisEPS_outputBusGroupOn
 .text.IsisEPS_outputBusGroupOff
                0x20016cb0       0xc4 D:/Internship 2018/OBC Projects/SecondProject/satellite-subsystems/demo/..//satellite-subsystems/lib\libSatelliteSubsystemsD.a(IsisEPS.o)
                0x20016cb0                IsisEPS_outputBusGroupOff
 .text.IsisEPS_outputBusGroupState
                0x20016d74       0xc4 D:/Internship 2018/OBC Projects/SecondProject/satellite-subsystems/demo/..//satellite-subsystems/lib\libSatelliteSubsystemsD.a(IsisEPS.o)
                0x20016d74                IsisEPS_outputBusGroupState
 .text.IsisEPS_outputBus3v3On
                0x20016e38       0xbc D:/Internship 2018/OBC Projects/SecondProject/satellite-subsystems/demo/..//satellite-subsystems/lib\libSatelliteSubsystemsD.a(IsisEPS.o)
                0x20016e38                IsisEPS_outputBus3v3On
 .text.IsisEPS_outputBus3v3Off
                0x20016ef4       0xbc D:/Internship 2018/OBC Projects/SecondProject/satellite-subsystems/demo/..//satellite-subsystems/lib\libSatelliteSubsystemsD.a(IsisEPS.o)
                0x20016ef4                IsisEPS_outputBus3v3Off
 .text.IsisEPS_outputBus5vOn
                0x20016fb0       0xbc D:/Internship 2018/OBC Projects/SecondProject/satellite-subsystems/demo/..//satellite-subsystems/lib\libSatelliteSubsystemsD.a(IsisEPS.o)
                0x20016fb0                IsisEPS_outputBus5vOn
 .text.IsisEPS_outputBus5vOff
                0x2001706c       0xbc D:/Internship 2018/OBC Projects/SecondProject/satellite-subsystems/demo/..//satellite-subsystems/lib\libSatelliteSubsystemsD.a(IsisEPS.o)
                0x2001706c                IsisEPS_outputBus5vOff
 .text.IsisEPS_outputBusHvOn
                0x20017128       0xbc D:/Internship 2018/OBC Projects/SecondProject/satellite-subsystems/demo/..//satellite-subsystems/lib\libSatelliteSubsystemsD.a(IsisEPS.o)
                0x20017128                IsisEPS_outputBusHvOn
 .text.IsisEPS_outputBusHvOff
                0x200171e4       0xbc D:/Internship 2018/OBC Projects/SecondProject/satellite-subsystems/demo/..//satellite-subsystems/lib\libSatelliteSubsystemsD.a(IsisEPS.o)
                0x200171e4                IsisEPS_outputBusHvOff
 .text.IsisEPS_getSystemState
                0x200172a0      0x138 D:/Internship 2018/OBC Projects/SecondProject/satellite-subsystems/demo/..//satellite-subsystems/lib\libSatelliteSubsystemsD.a(IsisEPS.o)
                0x200172a0                IsisEPS_getSystemState
 .text.IsisEPS_getRawHKDataMB
                0x200173d8      0x18c D:/Internship 2018/OBC Projects/SecondProject/satellite-subsystems/demo/..//satellite-subsystems/lib\libSatelliteSubsystemsD.a(IsisEPS.o)
                0x200173d8                IsisEPS_getRawHKDataMB
 .text.IsisEPS_getEngHKDataMB
                0x20017564      0x18c D:/Internship 2018/OBC Projects/SecondProject/satellite-subsystems/demo/..//satellite-subsystems/lib\libSatelliteSubsystemsD.a(IsisEPS.o)
                0x20017564                IsisEPS_getEngHKDataMB
 .text.IsisEPS_getRAEngHKDataMB
                0x200176f0      0x18c D:/Internship 2018/OBC Projects/SecondProject/satellite-subsystems/demo/..//satellite-subsystems/lib\libSatelliteSubsystemsD.a(IsisEPS.o)
                0x200176f0                IsisEPS_getRAEngHKDataMB
 .text.IsisEPS_getRawHKDataCDB
                0x2001787c      0x160 D:/Internship 2018/OBC Projects/SecondProject/satellite-subsystems/demo/..//satellite-subsystems/lib\libSatelliteSubsystemsD.a(IsisEPS.o)
                0x2001787c                IsisEPS_getRawHKDataCDB
 .text.IsisEPS_getEngHKDataCDB
                0x200179dc      0x160 D:/Internship 2018/OBC Projects/SecondProject/satellite-subsystems/demo/..//satellite-subsystems/lib\libSatelliteSubsystemsD.a(IsisEPS.o)
                0x200179dc                IsisEPS_getEngHKDataCDB
 .text.IsisEPS_getRAEngHKDataCDB
                0x20017b3c      0x160 D:/Internship 2018/OBC Projects/SecondProject/satellite-subsystems/demo/..//satellite-subsystems/lib\libSatelliteSubsystemsD.a(IsisEPS.o)
                0x20017b3c                IsisEPS_getRAEngHKDataCDB
 .text.IsisEPS_getLOState3V3
                0x20017c9c      0x150 D:/Internship 2018/OBC Projects/SecondProject/satellite-subsystems/demo/..//satellite-subsystems/lib\libSatelliteSubsystemsD.a(IsisEPS.o)
                0x20017c9c                IsisEPS_getLOState3V3
 .text.IsisEPS_getLOState5V
                0x20017dec      0x12c D:/Internship 2018/OBC Projects/SecondProject/satellite-subsystems/demo/..//satellite-subsystems/lib\libSatelliteSubsystemsD.a(IsisEPS.o)
                0x20017dec                IsisEPS_getLOState5V
 .text.IsisEPS_getLOStateBV
                0x20017f18      0x12c D:/Internship 2018/OBC Projects/SecondProject/satellite-subsystems/demo/..//satellite-subsystems/lib\libSatelliteSubsystemsD.a(IsisEPS.o)
                0x20017f18                IsisEPS_getLOStateBV
 .text.IsisEPS_getLOStateHV
                0x20018044      0x12c D:/Internship 2018/OBC Projects/SecondProject/satellite-subsystems/demo/..//satellite-subsystems/lib\libSatelliteSubsystemsD.a(IsisEPS.o)
                0x20018044                IsisEPS_getLOStateHV
 .text.IsisEPS_getParSize
                0x20018170      0x124 D:/Internship 2018/OBC Projects/SecondProject/satellite-subsystems/demo/..//satellite-subsystems/lib\libSatelliteSubsystemsD.a(IsisEPS.o)
                0x20018170                IsisEPS_getParSize
 .text.IsisEPS_getParameter
                0x20018294      0x238 D:/Internship 2018/OBC Projects/SecondProject/satellite-subsystems/demo/..//satellite-subsystems/lib\libSatelliteSubsystemsD.a(IsisEPS.o)
                0x20018294                IsisEPS_getParameter
 .text.IsisEPS_setParameter
                0x200184cc      0x264 D:/Internship 2018/OBC Projects/SecondProject/satellite-subsystems/demo/..//satellite-subsystems/lib\libSatelliteSubsystemsD.a(IsisEPS.o)
                0x200184cc                IsisEPS_setParameter
 .text.IsisEPS_resetParameter
                0x20018730      0x238 D:/Internship 2018/OBC Projects/SecondProject/satellite-subsystems/demo/..//satellite-subsystems/lib\libSatelliteSubsystemsD.a(IsisEPS.o)
                0x20018730                IsisEPS_resetParameter
 .text.IsisEPS_resetConfig
                0x20018968       0xf4 D:/Internship 2018/OBC Projects/SecondProject/satellite-subsystems/demo/..//satellite-subsystems/lib\libSatelliteSubsystemsD.a(IsisEPS.o)
                0x20018968                IsisEPS_resetConfig
 .text.IsisEPS_loadConfig
                0x20018a5c       0xf4 D:/Internship 2018/OBC Projects/SecondProject/satellite-subsystems/demo/..//satellite-subsystems/lib\libSatelliteSubsystemsD.a(IsisEPS.o)
                0x20018a5c                IsisEPS_loadConfig
 .text.IsisEPS_saveConfig
                0x20018b50      0x118 D:/Internship 2018/OBC Projects/SecondProject/satellite-subsystems/demo/..//satellite-subsystems/lib\libSatelliteSubsystemsD.a(IsisEPS.o)
                0x20018b50                IsisEPS_saveConfig
 .text.isisMTQv1_initialize
                0x20018c68      0x18c D:/Internship 2018/OBC Projects/SecondProject/satellite-subsystems/demo/..//satellite-subsystems/lib\libSatelliteSubsystemsD.a(IsisMTQv1.o)
                0x20018c68                isisMTQv1_initialize
 .text.make_isisMTQtransfer
                0x20018df4       0x3c D:/Internship 2018/OBC Projects/SecondProject/satellite-subsystems/demo/..//satellite-subsystems/lib\libSatelliteSubsystemsD.a(IsisMTQv1.o)
 .text.IsisMTQv1GetTemperature
                0x20018e30       0xac D:/Internship 2018/OBC Projects/SecondProject/satellite-subsystems/demo/..//satellite-subsystems/lib\libSatelliteSubsystemsD.a(IsisMTQv1.o)
                0x20018e30                IsisMTQv1GetTemperature
 .text.IsisMTQv2_initialize
                0x20018edc      0x18c D:/Internship 2018/OBC Projects/SecondProject/satellite-subsystems/demo/..//satellite-subsystems/lib\libSatelliteSubsystemsD.a(IsisMTQv2.o)
                0x20018edc                IsisMTQv2_initialize
 .text._make_isisMTQtransfer
                0x20019068       0x3c D:/Internship 2018/OBC Projects/SecondProject/satellite-subsystems/demo/..//satellite-subsystems/lib\libSatelliteSubsystemsD.a(IsisMTQv2.o)
 .text.IsisMTQv2_softReset
                0x200190a4       0xc8 D:/Internship 2018/OBC Projects/SecondProject/satellite-subsystems/demo/..//satellite-subsystems/lib\libSatelliteSubsystemsD.a(IsisMTQv2.o)
                0x200190a4                IsisMTQv2_softReset
 .text.IsisMTQv2_noOperation
                0x2001916c       0xac D:/Internship 2018/OBC Projects/SecondProject/satellite-subsystems/demo/..//satellite-subsystems/lib\libSatelliteSubsystemsD.a(IsisMTQv2.o)
                0x2001916c                IsisMTQv2_noOperation
 .text.IsisMTQv2_cancelOperation
                0x20019218       0xac D:/Internship 2018/OBC Projects/SecondProject/satellite-subsystems/demo/..//satellite-subsystems/lib\libSatelliteSubsystemsD.a(IsisMTQv2.o)
                0x20019218                IsisMTQv2_cancelOperation
 .text.IsisMTQv2_startMTMMeasurement
                0x200192c4       0xac D:/Internship 2018/OBC Projects/SecondProject/satellite-subsystems/demo/..//satellite-subsystems/lib\libSatelliteSubsystemsD.a(IsisMTQv2.o)
                0x200192c4                IsisMTQv2_startMTMMeasurement
 .text.IsisMTQv2_startMTQActuationCurrent
                0x20019370       0xdc D:/Internship 2018/OBC Projects/SecondProject/satellite-subsystems/demo/..//satellite-subsystems/lib\libSatelliteSubsystemsD.a(IsisMTQv2.o)
                0x20019370                IsisMTQv2_startMTQActuationCurrent
 .text.IsisMTQv2_startMTQActuationDipole
                0x2001944c       0xdc D:/Internship 2018/OBC Projects/SecondProject/satellite-subsystems/demo/..//satellite-subsystems/lib\libSatelliteSubsystemsD.a(IsisMTQv2.o)
                0x2001944c                IsisMTQv2_startMTQActuationDipole
 .text.IsisMTQv2_startMTQActuationPWM
                0x20019528       0xdc D:/Internship 2018/OBC Projects/SecondProject/satellite-subsystems/demo/..//satellite-subsystems/lib\libSatelliteSubsystemsD.a(IsisMTQv2.o)
                0x20019528                IsisMTQv2_startMTQActuationPWM
 .text.IsisMTQv2_startSelfTest
                0x20019604       0xbc D:/Internship 2018/OBC Projects/SecondProject/satellite-subsystems/demo/..//satellite-subsystems/lib\libSatelliteSubsystemsD.a(IsisMTQv2.o)
                0x20019604                IsisMTQv2_startSelfTest
 .text.IsisMTQv2_startDetumble
                0x200196c0       0xd4 D:/Internship 2018/OBC Projects/SecondProject/satellite-subsystems/demo/..//satellite-subsystems/lib\libSatelliteSubsystemsD.a(IsisMTQv2.o)
                0x200196c0                IsisMTQv2_startDetumble
 .text.IsisMTQv2_getSystemState
                0x20019794      0x118 D:/Internship 2018/OBC Projects/SecondProject/satellite-subsystems/demo/..//satellite-subsystems/lib\libSatelliteSubsystemsD.a(IsisMTQv2.o)
                0x20019794                IsisMTQv2_getSystemState
 .text.IsisMTQv2_getRawMTMData
                0x200198ac      0x130 D:/Internship 2018/OBC Projects/SecondProject/satellite-subsystems/demo/..//satellite-subsystems/lib\libSatelliteSubsystemsD.a(IsisMTQv2.o)
                0x200198ac                IsisMTQv2_getRawMTMData
 .text.IsisMTQv2_getCalMTMData
                0x200199dc      0x130 D:/Internship 2018/OBC Projects/SecondProject/satellite-subsystems/demo/..//satellite-subsystems/lib\libSatelliteSubsystemsD.a(IsisMTQv2.o)
                0x200199dc                IsisMTQv2_getCalMTMData
 .text.IsisMTQv2_getCoilCurrent
                0x20019b0c      0x100 D:/Internship 2018/OBC Projects/SecondProject/satellite-subsystems/demo/..//satellite-subsystems/lib\libSatelliteSubsystemsD.a(IsisMTQv2.o)
                0x20019b0c                IsisMTQv2_getCoilCurrent
 .text.IsisMTQv2_getCoilTemperature
                0x20019c0c      0x100 D:/Internship 2018/OBC Projects/SecondProject/satellite-subsystems/demo/..//satellite-subsystems/lib\libSatelliteSubsystemsD.a(IsisMTQv2.o)
                0x20019c0c                IsisMTQv2_getCoilTemperature
 .text.IsisMTQv2_getCmdActuationDipole
                0x20019d0c      0x100 D:/Internship 2018/OBC Projects/SecondProject/satellite-subsystems/demo/..//satellite-subsystems/lib\libSatelliteSubsystemsD.a(IsisMTQv2.o)
                0x20019d0c                IsisMTQv2_getCmdActuationDipole
 .text.IsisMTQv2_getSelftestDataSingleAxis
                0x20019e0c      0x17c D:/Internship 2018/OBC Projects/SecondProject/satellite-subsystems/demo/..//satellite-subsystems/lib\libSatelliteSubsystemsD.a(IsisMTQv2.o)
                0x20019e0c                IsisMTQv2_getSelftestDataSingleAxis
 .text.IsisMTQv2_getSelftestDataAllAxis
                0x20019f88      0x2cc D:/Internship 2018/OBC Projects/SecondProject/satellite-subsystems/demo/..//satellite-subsystems/lib\libSatelliteSubsystemsD.a(IsisMTQv2.o)
                0x20019f88                IsisMTQv2_getSelftestDataAllAxis
 .text.IsisMTQv2_getDetumbleData
                0x2001a254      0x108 D:/Internship 2018/OBC Projects/SecondProject/satellite-subsystems/demo/..//satellite-subsystems/lib\libSatelliteSubsystemsD.a(IsisMTQv2.o)
                0x2001a254                IsisMTQv2_getDetumbleData
 .text.IsisMTQv2_getRawHKData
                0x2001a35c      0x13c D:/Internship 2018/OBC Projects/SecondProject/satellite-subsystems/demo/..//satellite-subsystems/lib\libSatelliteSubsystemsD.a(IsisMTQv2.o)
                0x2001a35c                IsisMTQv2_getRawHKData
 .text.IsisMTQv2_getEngHKData
                0x2001a498      0x13c D:/Internship 2018/OBC Projects/SecondProject/satellite-subsystems/demo/..//satellite-subsystems/lib\libSatelliteSubsystemsD.a(IsisMTQv2.o)
                0x2001a498                IsisMTQv2_getEngHKData
 .text.IsisMTQv2_getParSize
                0x2001a5d4      0x11c D:/Internship 2018/OBC Projects/SecondProject/satellite-subsystems/demo/..//satellite-subsystems/lib\libSatelliteSubsystemsD.a(IsisMTQv2.o)
                0x2001a5d4                IsisMTQv2_getParSize
 .text.IsisMTQv2_getParameter
                0x2001a6f0      0x238 D:/Internship 2018/OBC Projects/SecondProject/satellite-subsystems/demo/..//satellite-subsystems/lib\libSatelliteSubsystemsD.a(IsisMTQv2.o)
                0x2001a6f0                IsisMTQv2_getParameter
 .text.IsisMTQv2_setParameter
                0x2001a928      0x264 D:/Internship 2018/OBC Projects/SecondProject/satellite-subsystems/demo/..//satellite-subsystems/lib\libSatelliteSubsystemsD.a(IsisMTQv2.o)
                0x2001a928                IsisMTQv2_setParameter
 .text.IsisMTQv2_resetParameter
                0x2001ab8c      0x238 D:/Internship 2018/OBC Projects/SecondProject/satellite-subsystems/demo/..//satellite-subsystems/lib\libSatelliteSubsystemsD.a(IsisMTQv2.o)
                0x2001ab8c                IsisMTQv2_resetParameter
 .text.IsisSolarPanel_getTemperature
                0x2001adc4       0xbc D:/Internship 2018/OBC Projects/SecondProject/satellite-subsystems/demo/..//satellite-subsystems/lib\libSatelliteSubsystemsD.a(IsisSolarPanel.o)
                0x2001adc4                IsisSolarPanel_getTemperature
 .text.IsisSolarPanelv2_initialize
                0x2001ae80       0xb4 D:/Internship 2018/OBC Projects/SecondProject/satellite-subsystems/demo/..//satellite-subsystems/lib\libSatelliteSubsystemsD.a(IsisSolarPanelv2.o)
                0x2001ae80                IsisSolarPanelv2_initialize
 .text.IsisSolarPanelv2_getTemperature
                0x2001af34       0xc8 D:/Internship 2018/OBC Projects/SecondProject/satellite-subsystems/demo/..//satellite-subsystems/lib\libSatelliteSubsystemsD.a(IsisSolarPanelv2.o)
                0x2001af34                IsisSolarPanelv2_getTemperature
 .text.IsisSolarPanelv2_sleep
                0x2001affc       0xbc D:/Internship 2018/OBC Projects/SecondProject/satellite-subsystems/demo/..//satellite-subsystems/lib\libSatelliteSubsystemsD.a(IsisSolarPanelv2.o)
                0x2001affc                IsisSolarPanelv2_sleep
 .text.IsisSolarPanelv2_wakeup
                0x2001b0b8       0x80 D:/Internship 2018/OBC Projects/SecondProject/satellite-subsystems/demo/..//satellite-subsystems/lib\libSatelliteSubsystemsD.a(IsisSolarPanelv2.o)
                0x2001b0b8                IsisSolarPanelv2_wakeup
 .text._Reset   0x2001b138       0x20 D:/Internship 2018/OBC Projects/SecondProject/satellite-subsystems/demo/..//satellite-subsystems/lib\libSatelliteSubsystemsD.a(IsisSolarPanelv2.o)
 .text._WaitForStartup
                0x2001b158       0x90 D:/Internship 2018/OBC Projects/SecondProject/satellite-subsystems/demo/..//satellite-subsystems/lib\libSatelliteSubsystemsD.a(IsisSolarPanelv2.o)
 .text._AssignAllChannels
                0x2001b1e8       0x90 D:/Internship 2018/OBC Projects/SecondProject/satellite-subsystems/demo/..//satellite-subsystems/lib\libSatelliteSubsystemsD.a(IsisSolarPanelv2.o)
 .text._AssignThisChannel
                0x2001b278       0xe8 D:/Internship 2018/OBC Projects/SecondProject/satellite-subsystems/demo/..//satellite-subsystems/lib\libSatelliteSubsystemsD.a(IsisSolarPanelv2.o)
 .text._InitiateConversion
                0x2001b360       0xac D:/Internship 2018/OBC Projects/SecondProject/satellite-subsystems/demo/..//satellite-subsystems/lib\libSatelliteSubsystemsD.a(IsisSolarPanelv2.o)
 .text._WaitForConversionComplete
                0x2001b40c      0x100 D:/Internship 2018/OBC Projects/SecondProject/satellite-subsystems/demo/..//satellite-subsystems/lib\libSatelliteSubsystemsD.a(IsisSolarPanelv2.o)
 .text._ReadResult
                0x2001b50c      0x158 D:/Internship 2018/OBC Projects/SecondProject/satellite-subsystems/demo/..//satellite-subsystems/lib\libSatelliteSubsystemsD.a(IsisSolarPanelv2.o)
 .text._ExtractByte
                0x2001b664       0x38 D:/Internship 2018/OBC Projects/SecondProject/satellite-subsystems/demo/..//satellite-subsystems/lib\libSatelliteSubsystemsD.a(IsisSolarPanelv2.o)
 .text._ExtendSign
                0x2001b69c       0x6c D:/Internship 2018/OBC Projects/SecondProject/satellite-subsystems/demo/..//satellite-subsystems/lib\libSatelliteSubsystemsD.a(IsisSolarPanelv2.o)
 .text._PinsInit
                0x2001b708       0x50 D:/Internship 2018/OBC Projects/SecondProject/satellite-subsystems/demo/..//satellite-subsystems/lib\libSatelliteSubsystemsD.a(IsisSolarPanelv2.o)
 .text._SpiWriteRead
                0x2001b758       0x70 D:/Internship 2018/OBC Projects/SecondProject/satellite-subsystems/demo/..//satellite-subsystems/lib\libSatelliteSubsystemsD.a(IsisSolarPanelv2.o)
 .text.IsisTrxuv_initialize
                0x2001b7c8      0x32c D:/Internship 2018/OBC Projects/SecondProject/satellite-subsystems/demo/..//satellite-subsystems/lib\libSatelliteSubsystemsD.a(IsisTRXUV.o)
                0x2001b7c8                IsisTrxuv_initialize
 .text.makeTRXUVtransfer
                0x2001baf4       0x44 D:/Internship 2018/OBC Projects/SecondProject/satellite-subsystems/demo/..//satellite-subsystems/lib\libSatelliteSubsystemsD.a(IsisTRXUV.o)
 .text.IsisTrxuv_componentReset
                0x2001bb38       0x6c D:/Internship 2018/OBC Projects/SecondProject/satellite-subsystems/demo/..//satellite-subsystems/lib\libSatelliteSubsystemsD.a(IsisTRXUV.o)
                0x2001bb38                IsisTrxuv_componentReset
 .text.IsisTrxuv_reset
                0x2001bba4       0x74 D:/Internship 2018/OBC Projects/SecondProject/satellite-subsystems/demo/..//satellite-subsystems/lib\libSatelliteSubsystemsD.a(IsisTRXUV.o)
                0x2001bba4                IsisTrxuv_reset
 .text.IsisTrxuv_itcSendAX25DefClSign
                0x2001bc18       0xec D:/Internship 2018/OBC Projects/SecondProject/satellite-subsystems/demo/..//satellite-subsystems/lib\libSatelliteSubsystemsD.a(IsisTRXUV.o)
                0x2001bc18                IsisTrxuv_itcSendAX25DefClSign
 .text.IsisTrxuv_itcSendCwMessage
                0x2001bd04      0x190 D:/Internship 2018/OBC Projects/SecondProject/satellite-subsystems/demo/..//satellite-subsystems/lib\libSatelliteSubsystemsD.a(IsisTRXUV.o)
                0x2001bd04                IsisTrxuv_itcSendCwMessage
 .text.IsisTrxuv_itcSetIdlestate
                0x2001be94       0xa4 D:/Internship 2018/OBC Projects/SecondProject/satellite-subsystems/demo/..//satellite-subsystems/lib\libSatelliteSubsystemsD.a(IsisTRXUV.o)
                0x2001be94                IsisTrxuv_itcSetIdlestate
 .text.IsisTrxuv_itcSetAx25Bitrate
                0x2001bf38       0xa4 D:/Internship 2018/OBC Projects/SecondProject/satellite-subsystems/demo/..//satellite-subsystems/lib\libSatelliteSubsystemsD.a(IsisTRXUV.o)
                0x2001bf38                IsisTrxuv_itcSetAx25Bitrate
 .text.IsisTrxuv_imcGetFrameCount
                0x2001bfdc       0xa0 D:/Internship 2018/OBC Projects/SecondProject/satellite-subsystems/demo/..//satellite-subsystems/lib\libSatelliteSubsystemsD.a(IsisTRXUV.o)
                0x2001bfdc                IsisTrxuv_imcGetFrameCount
 .text.IsisTrxuv_imcGetCommandFrame
                0x2001c07c      0x29c D:/Internship 2018/OBC Projects/SecondProject/satellite-subsystems/demo/..//satellite-subsystems/lib\libSatelliteSubsystemsD.a(IsisTRXUV.o)
                0x2001c07c                IsisTrxuv_imcGetCommandFrame
 .text.IsisTrxuv_imcGetTelemetryAll
                0x2001c318       0xf8 D:/Internship 2018/OBC Projects/SecondProject/satellite-subsystems/demo/..//satellite-subsystems/lib\libSatelliteSubsystemsD.a(IsisTRXUV.o)
                0x2001c318                IsisTrxuv_imcGetTelemetryAll
 .text.IsisTrxvu_initialize
                0x2001c410      0x2f4 D:/Internship 2018/OBC Projects/SecondProject/satellite-subsystems/demo/..//satellite-subsystems/lib\libSatelliteSubsystemsD.a(IsisTRXVU.o)
                0x2001c410                IsisTrxvu_initialize
 .text.makeTRXVUtransfer
                0x2001c704       0x44 D:/Internship 2018/OBC Projects/SecondProject/satellite-subsystems/demo/..//satellite-subsystems/lib\libSatelliteSubsystemsD.a(IsisTRXVU.o)
 .text.IsisTrxvu_componentSoftReset
                0x2001c748       0x6c D:/Internship 2018/OBC Projects/SecondProject/satellite-subsystems/demo/..//satellite-subsystems/lib\libSatelliteSubsystemsD.a(IsisTRXVU.o)
                0x2001c748                IsisTrxvu_componentSoftReset
 .text.IsisTrxvu_componentHardReset
                0x2001c7b4       0xc8 D:/Internship 2018/OBC Projects/SecondProject/satellite-subsystems/demo/..//satellite-subsystems/lib\libSatelliteSubsystemsD.a(IsisTRXVU.o)
                0x2001c7b4                IsisTrxvu_componentHardReset
 .text.IsisTrxvu_tcSendAX25DefClSign
                0x2001c87c       0xec D:/Internship 2018/OBC Projects/SecondProject/satellite-subsystems/demo/..//satellite-subsystems/lib\libSatelliteSubsystemsD.a(IsisTRXVU.o)
                0x2001c87c                IsisTrxvu_tcSendAX25DefClSign
 .text.IsisTrxvu_tcSetIdlestate
                0x2001c968       0xa4 D:/Internship 2018/OBC Projects/SecondProject/satellite-subsystems/demo/..//satellite-subsystems/lib\libSatelliteSubsystemsD.a(IsisTRXVU.o)
                0x2001c968                IsisTrxvu_tcSetIdlestate
 .text.IsisTrxvu_tcSetAx25Bitrate
                0x2001ca0c       0xc4 D:/Internship 2018/OBC Projects/SecondProject/satellite-subsystems/demo/..//satellite-subsystems/lib\libSatelliteSubsystemsD.a(IsisTRXVU.o)
                0x2001ca0c                IsisTrxvu_tcSetAx25Bitrate
 .text.IsisTrxvu_tcGetTelemetryAll
                0x2001cad0       0xd0 D:/Internship 2018/OBC Projects/SecondProject/satellite-subsystems/demo/..//satellite-subsystems/lib\libSatelliteSubsystemsD.a(IsisTRXVU.o)
                0x2001cad0                IsisTrxvu_tcGetTelemetryAll
 .text.IsisTrxvu_rcGetFrameCount
                0x2001cba0       0xa0 D:/Internship 2018/OBC Projects/SecondProject/satellite-subsystems/demo/..//satellite-subsystems/lib\libSatelliteSubsystemsD.a(IsisTRXVU.o)
                0x2001cba0                IsisTrxvu_rcGetFrameCount
 .text.IsisTrxvu_rcGetCommandFrame
                0x2001cc40      0x2a4 D:/Internship 2018/OBC Projects/SecondProject/satellite-subsystems/demo/..//satellite-subsystems/lib\libSatelliteSubsystemsD.a(IsisTRXVU.o)
                0x2001cc40                IsisTrxvu_rcGetCommandFrame
 .text.IsisTrxvu_rcGetTelemetryAll
                0x2001cee4       0xf8 D:/Internship 2018/OBC Projects/SecondProject/satellite-subsystems/demo/..//satellite-subsystems/lib\libSatelliteSubsystemsD.a(IsisTRXVU.o)
                0x2001cee4                IsisTrxvu_rcGetTelemetryAll
 .text.IsisTxsInitialize
                0x2001cfdc      0x15c D:/Internship 2018/OBC Projects/SecondProject/satellite-subsystems/demo/..//satellite-subsystems/lib\libSatelliteSubsystemsD.a(IsisTxS.o)
                0x2001cfdc                IsisTxsInitialize
 .text.makeTxStransfer
                0x2001d138       0x3c D:/Internship 2018/OBC Projects/SecondProject/satellite-subsystems/demo/..//satellite-subsystems/lib\libSatelliteSubsystemsD.a(IsisTxS.o)
 .text.IsisTxsSetModulatorAttenuator
                0x2001d174       0xd8 D:/Internship 2018/OBC Projects/SecondProject/satellite-subsystems/demo/..//satellite-subsystems/lib\libSatelliteSubsystemsD.a(IsisTxS.o)
                0x2001d174                IsisTxsSetModulatorAttenuator
 .text.IsisTxsSetAx25Bitrate
                0x2001d24c       0xe4 D:/Internship 2018/OBC Projects/SecondProject/satellite-subsystems/demo/..//satellite-subsystems/lib\libSatelliteSubsystemsD.a(IsisTxS.o)
                0x2001d24c                IsisTxsSetAx25Bitrate
 .text.IsisTxsSetState
                0x2001d330       0xd8 D:/Internship 2018/OBC Projects/SecondProject/satellite-subsystems/demo/..//satellite-subsystems/lib\libSatelliteSubsystemsD.a(IsisTxS.o)
                0x2001d330                IsisTxsSetState
 .text.IsisTxsReset
                0x2001d408       0xb4 D:/Internship 2018/OBC Projects/SecondProject/satellite-subsystems/demo/..//satellite-subsystems/lib\libSatelliteSubsystemsD.a(IsisTxS.o)
                0x2001d408                IsisTxsReset
 .text.IsisTxsSendAX25DefClSign
                0x2001d4bc      0x1a4 D:/Internship 2018/OBC Projects/SecondProject/satellite-subsystems/demo/..//satellite-subsystems/lib\libSatelliteSubsystemsD.a(IsisTxS.o)
                0x2001d4bc                IsisTxsSendAX25DefClSign
 .text.IsisTxsGetHousekeepingData
                0x2001d660       0xcc D:/Internship 2018/OBC Projects/SecondProject/satellite-subsystems/demo/..//satellite-subsystems/lib\libSatelliteSubsystemsD.a(IsisTxS.o)
                0x2001d660                IsisTxsGetHousekeepingData
 .text.makeTRXCommonTransfer
                0x2001d72c       0x34 D:/Internship 2018/OBC Projects/SecondProject/satellite-subsystems/demo/..//satellite-subsystems/lib\libSatelliteSubsystemsD.a(IsisTRXCommon.o)
 .text.IsisTrxCommon_componentReset
                0x2001d760       0x68 D:/Internship 2018/OBC Projects/SecondProject/satellite-subsystems/demo/..//satellite-subsystems/lib\libSatelliteSubsystemsD.a(IsisTRXCommon.o)
                0x2001d760                IsisTrxCommon_componentReset
 .text.IsisTrxCommon_TxSendAX25DefClSign
                0x2001d7c8       0xf4 D:/Internship 2018/OBC Projects/SecondProject/satellite-subsystems/demo/..//satellite-subsystems/lib\libSatelliteSubsystemsD.a(IsisTRXCommon.o)
                0x2001d7c8                IsisTrxCommon_TxSendAX25DefClSign
 .text.IsisTrxCommon_TxSetIdlestate
                0x2001d8bc       0x78 D:/Internship 2018/OBC Projects/SecondProject/satellite-subsystems/demo/..//satellite-subsystems/lib\libSatelliteSubsystemsD.a(IsisTRXCommon.o)
                0x2001d8bc                IsisTrxCommon_TxSetIdlestate
 .text.IsisTrxCommon_TxSetAx25Bitrate
                0x2001d934       0x78 D:/Internship 2018/OBC Projects/SecondProject/satellite-subsystems/demo/..//satellite-subsystems/lib\libSatelliteSubsystemsD.a(IsisTRXCommon.o)
                0x2001d934                IsisTrxCommon_TxSetAx25Bitrate
 .text.IsisTrxCommon_RxGetFrameCount
                0x2001d9ac       0x8c D:/Internship 2018/OBC Projects/SecondProject/satellite-subsystems/demo/..//satellite-subsystems/lib\libSatelliteSubsystemsD.a(IsisTRXCommon.o)
                0x2001d9ac                IsisTrxCommon_RxGetFrameCount
 .text.IsisTrxCommon_RxGetTelemetryAll
                0x2001da38       0x8c D:/Internship 2018/OBC Projects/SecondProject/satellite-subsystems/demo/..//satellite-subsystems/lib\libSatelliteSubsystemsD.a(IsisTRXCommon.o)
                0x2001da38                IsisTrxCommon_RxGetTelemetryAll
 *fill*         0x2001dac4        0x4 00
 .text.exp      0x2001dac8      0x190 c:/isis/application/toolchain/bin/../lib/gcc/arm-none-eabi/4.7.4/../../../../arm-none-eabi/lib\libm.a(lib_a-w_exp.o)
                0x2001dac8                exp
 .text.__ieee754_exp
                0x2001dc58      0x448 c:/isis/application/toolchain/bin/../lib/gcc/arm-none-eabi/4.7.4/../../../../arm-none-eabi/lib\libm.a(lib_a-e_exp.o)
                0x2001dc58                __ieee754_exp
 .text.finite   0x2001e0a0       0x10 c:/isis/application/toolchain/bin/../lib/gcc/arm-none-eabi/4.7.4/../../../../arm-none-eabi/lib\libm.a(lib_a-s_finite.o)
                0x2001e0a0                finite
 .text.matherr  0x2001e0b0        0x8 c:/isis/application/toolchain/bin/../lib/gcc/arm-none-eabi/4.7.4/../../../../arm-none-eabi/lib\libm.a(lib_a-s_matherr.o)
                0x2001e0b0                matherr
 .text.validateTransferParameters
                0x2001e0b8      0x10c D:/Internship 2018/OBC Projects/SecondProject/satellite-subsystems/demo/../..//hal/hal/lib\libHALD.a(I2C.o)
 .text.I2C_queueTransfer
                0x2001e1c4       0xe8 D:/Internship 2018/OBC Projects/SecondProject/satellite-subsystems/demo/../..//hal/hal/lib\libHALD.a(I2C.o)
                0x2001e1c4                I2C_queueTransfer
 .text.I2C_internalCallback
                0x2001e2ac       0x64 D:/Internship 2018/OBC Projects/SecondProject/satellite-subsystems/demo/../..//hal/hal/lib\libHALD.a(I2C.o)
 .text.I2C_doBlockingTransfer
                0x2001e310      0x160 D:/Internship 2018/OBC Projects/SecondProject/satellite-subsystems/demo/../..//hal/hal/lib\libHALD.a(I2C.o)
 .text.I2C_writeRead
                0x2001e470      0x180 D:/Internship 2018/OBC Projects/SecondProject/satellite-subsystems/demo/../..//hal/hal/lib\libHALD.a(I2C.o)
                0x2001e470                I2C_writeRead
 .text.I2C_start
                0x2001e5f0      0x2e8 D:/Internship 2018/OBC Projects/SecondProject/satellite-subsystems/demo/../..//hal/hal/lib\libHALD.a(I2C.o)
                0x2001e5f0                I2C_start
 .text.I2C_stop
                0x2001e8d8      0x184 D:/Internship 2018/OBC Projects/SecondProject/satellite-subsystems/demo/../..//hal/hal/lib\libHALD.a(I2C.o)
                0x2001e8d8                I2C_stop
 .text.I2C_setTransferTimeout
                0x2001ea5c       0x48 D:/Internship 2018/OBC Projects/SecondProject/satellite-subsystems/demo/../..//hal/hal/lib\libHALD.a(I2C.o)
                0x2001ea5c                I2C_setTransferTimeout
 .text.uSdelay  0x2001eaa4       0x88 D:/Internship 2018/OBC Projects/SecondProject/satellite-subsystems/demo/../..//hal/hal/lib\libHALD.a(LED.o)
 .text.LED_start
                0x2001eb2c       0x1c D:/Internship 2018/OBC Projects/SecondProject/satellite-subsystems/demo/../..//hal/hal/lib\libHALD.a(LED.o)
                0x2001eb2c                LED_start
 .text.LED_glow
                0x2001eb48       0x58 D:/Internship 2018/OBC Projects/SecondProject/satellite-subsystems/demo/../..//hal/hal/lib\libHALD.a(LED.o)
                0x2001eb48                LED_glow
 .text.LED_dark
                0x2001eba0       0x58 D:/Internship 2018/OBC Projects/SecondProject/satellite-subsystems/demo/../..//hal/hal/lib\libHALD.a(LED.o)
                0x2001eba0                LED_dark
 .text.LED_toggle
                0x2001ebf8       0x50 D:/Internship 2018/OBC Projects/SecondProject/satellite-subsystems/demo/../..//hal/hal/lib\libHALD.a(LED.o)
                0x2001ebf8                LED_toggle
 .text.LED_wave
                0x2001ec48       0xd0 D:/Internship 2018/OBC Projects/SecondProject/satellite-subsystems/demo/../..//hal/hal/lib\libHALD.a(LED.o)
                0x2001ec48                LED_wave
 .text.LED_waveReverse
                0x2001ed18       0xd0 D:/Internship 2018/OBC Projects/SecondProject/satellite-subsystems/demo/../..//hal/hal/lib\libHALD.a(LED.o)
                0x2001ed18                LED_waveReverse
 .text.clearPDCtransfers
                0x2001ede8       0xdc D:/Internship 2018/OBC Projects/SecondProject/satellite-subsystems/demo/../..//hal/hal/lib\libHALD.a(SPI.o)
 .text.SPI_start
                0x2001eec4      0x4c0 D:/Internship 2018/OBC Projects/SecondProject/satellite-subsystems/demo/../..//hal/hal/lib\libHALD.a(SPI.o)
                0x2001eec4                SPI_start
 .text.SPI_stop
                0x2001f384      0x22c D:/Internship 2018/OBC Projects/SecondProject/satellite-subsystems/demo/../..//hal/hal/lib\libHALD.a(SPI.o)
                0x2001f384                SPI_stop
 .text.SPI_queueTransfer
                0x2001f5b0      0x190 D:/Internship 2018/OBC Projects/SecondProject/satellite-subsystems/demo/../..//hal/hal/lib\libHALD.a(SPI.o)
                0x2001f5b0                SPI_queueTransfer
 .text.SPI_internalCallback
                0x2001f740       0x64 D:/Internship 2018/OBC Projects/SecondProject/satellite-subsystems/demo/../..//hal/hal/lib\libHALD.a(SPI.o)
 .text.SPI_writeRead
                0x2001f7a4      0x188 D:/Internship 2018/OBC Projects/SecondProject/satellite-subsystems/demo/../..//hal/hal/lib\libHALD.a(SPI.o)
                0x2001f7a4                SPI_writeRead
 .text.waitForTransfer
                0x2001f92c       0x68 D:/Internship 2018/OBC Projects/SecondProject/satellite-subsystems/demo/../..//hal/hal/lib\libHALD.a(SPI.o)
 .text.WDT_start
                0x2001f994       0x48 D:/Internship 2018/OBC Projects/SecondProject/satellite-subsystems/demo/../..//hal/hal/lib\libHALD.a(WatchDogTimerNoOS.o)
                0x2001f994                WDT_start
 .text.WDT_startWatchdogKickTask
                0x2001f9dc       0xb4 D:/Internship 2018/OBC Projects/SecondProject/satellite-subsystems/demo/../..//hal/hal/lib\libHALD.a(WatchDogTimerOS.o)
                0x2001f9dc                WDT_startWatchdogKickTask
 .text.WDT_forceKickEveryNms
                0x2001fa90       0x50 D:/Internship 2018/OBC Projects/SecondProject/satellite-subsystems/demo/../..//hal/hal/lib\libHALD.a(WatchDogTimerOS.o)
                0x2001fa90                WDT_forceKickEveryNms
 .text.UTIL_DbguGetInteger
                0x2001fae0      0x124 D:/Internship 2018/OBC Projects/SecondProject/satellite-subsystems/demo/../..//hal/hal/lib\libHALD.a(util.o)
                0x2001fae0                UTIL_DbguGetInteger
 .text.UTIL_DbguGetIntegerMinMax
                0x2001fc04       0xa4 D:/Internship 2018/OBC Projects/SecondProject/satellite-subsystems/demo/../..//hal/hal/lib\libHALD.a(util.o)
                0x2001fc04                UTIL_DbguGetIntegerMinMax
 .text.xQueueGenericReset
                0x2001fca8      0x150 D:/Internship 2018/OBC Projects/SecondProject/satellite-subsystems/demo/../..//hal/freertos/lib\libFreeRTOSD.a(queue.o)
                0x2001fca8                xQueueGenericReset
 .text.xQueueGenericCreate
                0x2001fdf8       0xfc D:/Internship 2018/OBC Projects/SecondProject/satellite-subsystems/demo/../..//hal/freertos/lib\libFreeRTOSD.a(queue.o)
                0x2001fdf8                xQueueGenericCreate
 .text.xQueueCreateMutex
                0x2001fef4      0x110 D:/Internship 2018/OBC Projects/SecondProject/satellite-subsystems/demo/../..//hal/freertos/lib\libFreeRTOSD.a(queue.o)
                0x2001fef4                xQueueCreateMutex
 .text.xQueueGenericSend
                0x20020004      0x268 D:/Internship 2018/OBC Projects/SecondProject/satellite-subsystems/demo/../..//hal/freertos/lib\libFreeRTOSD.a(queue.o)
                0x20020004                xQueueGenericSend
 .text.xQueueGenericSendFromISR
                0x2002026c      0x19c D:/Internship 2018/OBC Projects/SecondProject/satellite-subsystems/demo/../..//hal/freertos/lib\libFreeRTOSD.a(queue.o)
                0x2002026c                xQueueGenericSendFromISR
 .text.xQueueGenericReceive
                0x20020408      0x2cc D:/Internship 2018/OBC Projects/SecondProject/satellite-subsystems/demo/../..//hal/freertos/lib\libFreeRTOSD.a(queue.o)
                0x20020408                xQueueGenericReceive
 .text.uxQueueMessagesWaiting
                0x200206d4       0x6c D:/Internship 2018/OBC Projects/SecondProject/satellite-subsystems/demo/../..//hal/freertos/lib\libFreeRTOSD.a(queue.o)
                0x200206d4                uxQueueMessagesWaiting
 .text.vQueueDelete
                0x20020740       0x78 D:/Internship 2018/OBC Projects/SecondProject/satellite-subsystems/demo/../..//hal/freertos/lib\libFreeRTOSD.a(queue.o)
                0x20020740                vQueueDelete
 .text.prvCopyDataToQueue
                0x200207b8      0x190 D:/Internship 2018/OBC Projects/SecondProject/satellite-subsystems/demo/../..//hal/freertos/lib\libFreeRTOSD.a(queue.o)
 .text.prvCopyDataFromQueue
                0x20020948       0x90 D:/Internship 2018/OBC Projects/SecondProject/satellite-subsystems/demo/../..//hal/freertos/lib\libFreeRTOSD.a(queue.o)
 .text.prvUnlockQueue
                0x200209d8      0x100 D:/Internship 2018/OBC Projects/SecondProject/satellite-subsystems/demo/../..//hal/freertos/lib\libFreeRTOSD.a(queue.o)
 .text.prvIsQueueEmpty
                0x20020ad8       0x4c D:/Internship 2018/OBC Projects/SecondProject/satellite-subsystems/demo/../..//hal/freertos/lib\libFreeRTOSD.a(queue.o)
 .text.prvIsQueueFull
                0x20020b24       0x54 D:/Internship 2018/OBC Projects/SecondProject/satellite-subsystems/demo/../..//hal/freertos/lib\libFreeRTOSD.a(queue.o)
 .text.vQueueUnregisterQueue
                0x20020b78       0x80 D:/Internship 2018/OBC Projects/SecondProject/satellite-subsystems/demo/../..//hal/freertos/lib\libFreeRTOSD.a(queue.o)
                0x20020b78                vQueueUnregisterQueue
 .text.xTaskGenericCreate
                0x20020bf8      0x2ac D:/Internship 2018/OBC Projects/SecondProject/satellite-subsystems/demo/../..//hal/freertos/lib\libFreeRTOSD.a(tasks.o)
                0x20020bf8                xTaskGenericCreate
 .text.vTaskDelete
                0x20020ea4       0xe8 D:/Internship 2018/OBC Projects/SecondProject/satellite-subsystems/demo/../..//hal/freertos/lib\libFreeRTOSD.a(tasks.o)
                0x20020ea4                vTaskDelete
 .text.vTaskDelay
                0x20020f8c       0x80 D:/Internship 2018/OBC Projects/SecondProject/satellite-subsystems/demo/../..//hal/freertos/lib\libFreeRTOSD.a(tasks.o)
                0x20020f8c                vTaskDelay
 .text.vTaskStartScheduler
                0x2002100c       0xd4 D:/Internship 2018/OBC Projects/SecondProject/satellite-subsystems/demo/../..//hal/freertos/lib\libFreeRTOSD.a(tasks.o)
                0x2002100c                vTaskStartScheduler
 .text.vTaskSuspendAll
                0x200210e0       0x2c D:/Internship 2018/OBC Projects/SecondProject/satellite-subsystems/demo/../..//hal/freertos/lib\libFreeRTOSD.a(tasks.o)
                0x200210e0                vTaskSuspendAll
 .text.xTaskResumeAll
                0x2002110c      0x1f4 D:/Internship 2018/OBC Projects/SecondProject/satellite-subsystems/demo/../..//hal/freertos/lib\libFreeRTOSD.a(tasks.o)
                0x2002110c                xTaskResumeAll
 .text.xTaskGetTickCount
                0x20021300       0x34 D:/Internship 2018/OBC Projects/SecondProject/satellite-subsystems/demo/../..//hal/freertos/lib\libFreeRTOSD.a(tasks.o)
                0x20021300                xTaskGetTickCount
 .text.xTaskIncrementTick
                0x20021334      0x298 D:/Internship 2018/OBC Projects/SecondProject/satellite-subsystems/demo/../..//hal/freertos/lib\libFreeRTOSD.a(tasks.o)
                0x20021334                xTaskIncrementTick
 .text.vTaskSwitchContext
                0x200215cc      0x18c D:/Internship 2018/OBC Projects/SecondProject/satellite-subsystems/demo/../..//hal/freertos/lib\libFreeRTOSD.a(tasks.o)
                0x200215cc                vTaskSwitchContext
 .text.vTaskPlaceOnEventList
                0x20021758       0xcc D:/Internship 2018/OBC Projects/SecondProject/satellite-subsystems/demo/../..//hal/freertos/lib\libFreeRTOSD.a(tasks.o)
                0x20021758                vTaskPlaceOnEventList
 .text.xTaskRemoveFromEventList
                0x20021824      0x160 D:/Internship 2018/OBC Projects/SecondProject/satellite-subsystems/demo/../..//hal/freertos/lib\libFreeRTOSD.a(tasks.o)
                0x20021824                xTaskRemoveFromEventList
 .text.vTaskSetTimeOutState
                0x20021984       0x78 D:/Internship 2018/OBC Projects/SecondProject/satellite-subsystems/demo/../..//hal/freertos/lib\libFreeRTOSD.a(tasks.o)
                0x20021984                vTaskSetTimeOutState
 .text.xTaskCheckForTimeOut
                0x200219fc      0x158 D:/Internship 2018/OBC Projects/SecondProject/satellite-subsystems/demo/../..//hal/freertos/lib\libFreeRTOSD.a(tasks.o)
                0x200219fc                xTaskCheckForTimeOut
 .text.vTaskMissedYield
                0x20021b54       0x24 D:/Internship 2018/OBC Projects/SecondProject/satellite-subsystems/demo/../..//hal/freertos/lib\libFreeRTOSD.a(tasks.o)
                0x20021b54                vTaskMissedYield
 .text.prvIdleTask
                0x20021b78       0x20 D:/Internship 2018/OBC Projects/SecondProject/satellite-subsystems/demo/../..//hal/freertos/lib\libFreeRTOSD.a(tasks.o)
 .text.prvInitialiseTCBVariables
                0x20021b98      0x110 D:/Internship 2018/OBC Projects/SecondProject/satellite-subsystems/demo/../..//hal/freertos/lib\libFreeRTOSD.a(tasks.o)
 .text.prvInitialiseTaskLists
                0x20021ca8       0xbc D:/Internship 2018/OBC Projects/SecondProject/satellite-subsystems/demo/../..//hal/freertos/lib\libFreeRTOSD.a(tasks.o)
 .text.prvCheckTasksWaitingTermination
                0x20021d64       0xbc D:/Internship 2018/OBC Projects/SecondProject/satellite-subsystems/demo/../..//hal/freertos/lib\libFreeRTOSD.a(tasks.o)
 .text.prvAddCurrentTaskToDelayedList
                0x20021e20       0xb4 D:/Internship 2018/OBC Projects/SecondProject/satellite-subsystems/demo/../..//hal/freertos/lib\libFreeRTOSD.a(tasks.o)
 .text.prvAllocateTCBAndStack
                0x20021ed4       0xb4 D:/Internship 2018/OBC Projects/SecondProject/satellite-subsystems/demo/../..//hal/freertos/lib\libFreeRTOSD.a(tasks.o)
 .text.prvDeleteTCB
                0x20021f88       0x30 D:/Internship 2018/OBC Projects/SecondProject/satellite-subsystems/demo/../..//hal/freertos/lib\libFreeRTOSD.a(tasks.o)
 .text.xTaskGetCurrentTaskHandle
                0x20021fb8       0x30 D:/Internship 2018/OBC Projects/SecondProject/satellite-subsystems/demo/../..//hal/freertos/lib\libFreeRTOSD.a(tasks.o)
                0x20021fb8                xTaskGetCurrentTaskHandle
 .text.xTaskGetSchedulerState
                0x20021fe8       0x68 D:/Internship 2018/OBC Projects/SecondProject/satellite-subsystems/demo/../..//hal/freertos/lib\libFreeRTOSD.a(tasks.o)
                0x20021fe8                xTaskGetSchedulerState
 .text.vTaskPriorityInherit
                0x20022050      0x148 D:/Internship 2018/OBC Projects/SecondProject/satellite-subsystems/demo/../..//hal/freertos/lib\libFreeRTOSD.a(tasks.o)
                0x20022050                vTaskPriorityInherit
 .text.vTaskPriorityDisinherit
                0x20022198       0xdc D:/Internship 2018/OBC Projects/SecondProject/satellite-subsystems/demo/../..//hal/freertos/lib\libFreeRTOSD.a(tasks.o)
                0x20022198                vTaskPriorityDisinherit
 .text.vApplicationStackOverflowHook
                0x20022274       0x4c D:/Internship 2018/OBC Projects/SecondProject/satellite-subsystems/demo/../..//hal/freertos/lib\libFreeRTOSD.a(hooks.o)
                0x20022274                vApplicationStackOverflowHook
 .text.vApplicationIdleHook
                0x200222c0       0x18 D:/Internship 2018/OBC Projects/SecondProject/satellite-subsystems/demo/../..//hal/freertos/lib\libFreeRTOSD.a(hooks.o)
                0x200222c0                vApplicationIdleHook
 .text.pvPortMalloc
                0x200222d8       0x28 D:/Internship 2018/OBC Projects/SecondProject/satellite-subsystems/demo/../..//hal/freertos/lib\libFreeRTOSD.a(standardMemMang.o)
                0x200222d8                pvPortMalloc
 .text.vPortFree
                0x20022300       0x20 D:/Internship 2018/OBC Projects/SecondProject/satellite-subsystems/demo/../..//hal/freertos/lib\libFreeRTOSD.a(standardMemMang.o)
                0x20022300                vPortFree
 .text.pxPortInitialiseStack
                0x20022320      0x218 D:/Internship 2018/OBC Projects/SecondProject/satellite-subsystems/demo/../..//hal/freertos/lib\libFreeRTOSD.a(port.o)
                0x20022320                pxPortInitialiseStack
 .text.xPortStartScheduler
                0x20022538       0x1c D:/Internship 2018/OBC Projects/SecondProject/satellite-subsystems/demo/../..//hal/freertos/lib\libFreeRTOSD.a(port.o)
                0x20022538                xPortStartScheduler
 .text.prvSetupTimerInterrupt
                0x20022554       0x54 D:/Internship 2018/OBC Projects/SecondProject/satellite-subsystems/demo/../..//hal/freertos/lib\libFreeRTOSD.a(port.o)
 .text.vPortISRStartFirstTask
                0x200225a8       0x64 D:/Internship 2018/OBC Projects/SecondProject/satellite-subsystems/demo/../..//hal/freertos/lib\libFreeRTOSD.a(port.o)
 .text.vPortEnterCritical
                0x2002260c       0x40 D:/Internship 2018/OBC Projects/SecondProject/satellite-subsystems/demo/../..//hal/freertos/lib\libFreeRTOSD.a(port.o)
                0x2002260c                vPortEnterCritical
 .text.vPortExitCritical
                0x2002264c       0x60 D:/Internship 2018/OBC Projects/SecondProject/satellite-subsystems/demo/../..//hal/freertos/lib\libFreeRTOSD.a(port.o)
                0x2002264c                vPortExitCritical
 .text.vListInitialise
                0x200226ac       0x64 D:/Internship 2018/OBC Projects/SecondProject/satellite-subsystems/demo/../..//hal/freertos/lib\libFreeRTOSD.a(list.o)
                0x200226ac                vListInitialise
 .text.vListInitialiseItem
                0x20022710       0x28 D:/Internship 2018/OBC Projects/SecondProject/satellite-subsystems/demo/../..//hal/freertos/lib\libFreeRTOSD.a(list.o)
                0x20022710                vListInitialiseItem
 .text.vListInsertEnd
                0x20022738       0x84 D:/Internship 2018/OBC Projects/SecondProject/satellite-subsystems/demo/../..//hal/freertos/lib\libFreeRTOSD.a(list.o)
                0x20022738                vListInsertEnd
 .text.vListInsert
                0x200227bc       0xd4 D:/Internship 2018/OBC Projects/SecondProject/satellite-subsystems/demo/../..//hal/freertos/lib\libFreeRTOSD.a(list.o)
                0x200227bc                vListInsert
 .text.uxListRemove
                0x20022890       0xa0 D:/Internship 2018/OBC Projects/SecondProject/satellite-subsystems/demo/../..//hal/freertos/lib\libFreeRTOSD.a(list.o)
                0x20022890                uxListRemove
 .text._read    0x20022930       0xa4 D:/Internship 2018/OBC Projects/SecondProject/satellite-subsystems/demo/../..//hal/at91/lib\libAt91D.a(syscalls.o)
                0x20022930                _read
 .text._write   0x200229d4       0xb8 D:/Internship 2018/OBC Projects/SecondProject/satellite-subsystems/demo/../..//hal/at91/lib\libAt91D.a(syscalls.o)
                0x200229d4                _write
 .text._lseek   0x20022a8c       0x2c D:/Internship 2018/OBC Projects/SecondProject/satellite-subsystems/demo/../..//hal/at91/lib\libAt91D.a(syscalls.o)
                0x20022a8c                _lseek
 .text._close   0x20022ab8       0x24 D:/Internship 2018/OBC Projects/SecondProject/satellite-subsystems/demo/../..//hal/at91/lib\libAt91D.a(syscalls.o)
                0x20022ab8                _close
 .text._fstat   0x20022adc       0x28 D:/Internship 2018/OBC Projects/SecondProject/satellite-subsystems/demo/../..//hal/at91/lib\libAt91D.a(syscalls.o)
                0x20022adc                _fstat
 .text._isatty  0x20022b04       0x38 D:/Internship 2018/OBC Projects/SecondProject/satellite-subsystems/demo/../..//hal/at91/lib\libAt91D.a(syscalls.o)
                0x20022b04                _isatty
 .text._sbrk    0x20022b3c       0xac D:/Internship 2018/OBC Projects/SecondProject/satellite-subsystems/demo/../..//hal/at91/lib\libAt91D.a(syscalls.o)
                0x20022b3c                _sbrk
 .text.AIC_ConfigureIT
                0x20022be8       0x74 D:/Internship 2018/OBC Projects/SecondProject/satellite-subsystems/demo/../..//hal/at91/lib\libAt91D.a(aic.o)
                0x20022be8                AIC_ConfigureIT
 .text.AIC_EnableIT
                0x20022c5c       0x34 D:/Internship 2018/OBC Projects/SecondProject/satellite-subsystems/demo/../..//hal/at91/lib\libAt91D.a(aic.o)
                0x20022c5c                AIC_EnableIT
 .text.AIC_DisableIT
                0x20022c90       0x34 D:/Internship 2018/OBC Projects/SecondProject/satellite-subsystems/demo/../..//hal/at91/lib\libAt91D.a(aic.o)
                0x20022c90                AIC_DisableIT
 .text.CP15_Enable_I_Cache
                0x20022cc4       0x4c D:/Internship 2018/OBC Projects/SecondProject/satellite-subsystems/demo/../..//hal/at91/lib\libAt91D.a(cp15.o)
                0x20022cc4                CP15_Enable_I_Cache
 .text.CP15_Disable_I_Cache
                0x20022d10       0x5c D:/Internship 2018/OBC Projects/SecondProject/satellite-subsystems/demo/../..//hal/at91/lib\libAt91D.a(cp15.o)
                0x20022d10                CP15_Disable_I_Cache
 .text.CP15_DisableMMU
                0x20022d6c       0x68 D:/Internship 2018/OBC Projects/SecondProject/satellite-subsystems/demo/../..//hal/at91/lib\libAt91D.a(cp15.o)
                0x20022d6c                CP15_DisableMMU
 .text.CP15_Disable_D_Cache
                0x20022dd4       0x5c D:/Internship 2018/OBC Projects/SecondProject/satellite-subsystems/demo/../..//hal/at91/lib\libAt91D.a(cp15.o)
                0x20022dd4                CP15_Disable_D_Cache
 .text.DBGU_Configure
                0x20022e30       0x84 D:/Internship 2018/OBC Projects/SecondProject/satellite-subsystems/demo/../..//hal/at91/lib\libAt91D.a(dbgu.o)
                0x20022e30                DBGU_Configure
 .text.DBGU_PutChar
                0x20022eb4       0x60 D:/Internship 2018/OBC Projects/SecondProject/satellite-subsystems/demo/../..//hal/at91/lib\libAt91D.a(dbgu.o)
                0x20022eb4                DBGU_PutChar
 .text.DBGU_IsRxReady
                0x20022f14       0x28 D:/Internship 2018/OBC Projects/SecondProject/satellite-subsystems/demo/../..//hal/at91/lib\libAt91D.a(dbgu.o)
                0x20022f14                DBGU_IsRxReady
 .text.DBGU_GetChar
                0x20022f3c       0x40 D:/Internship 2018/OBC Projects/SecondProject/satellite-subsystems/demo/../..//hal/at91/lib\libAt91D.a(dbgu.o)
                0x20022f3c                DBGU_GetChar
 .text.PIO_SetPeripheralA
                0x20022f7c       0x74 D:/Internship 2018/OBC Projects/SecondProject/satellite-subsystems/demo/../..//hal/at91/lib\libAt91D.a(pio.o)
 .text.PIO_SetPeripheralB
                0x20022ff0       0x74 D:/Internship 2018/OBC Projects/SecondProject/satellite-subsystems/demo/../..//hal/at91/lib\libAt91D.a(pio.o)
 .text.PIO_SetInput
                0x20023064       0x9c D:/Internship 2018/OBC Projects/SecondProject/satellite-subsystems/demo/../..//hal/at91/lib\libAt91D.a(pio.o)
 .text.PIO_SetOutput
                0x20023100       0xc4 D:/Internship 2018/OBC Projects/SecondProject/satellite-subsystems/demo/../..//hal/at91/lib\libAt91D.a(pio.o)
 .text.PIO_Configure
                0x200231c4      0x1ec D:/Internship 2018/OBC Projects/SecondProject/satellite-subsystems/demo/../..//hal/at91/lib\libAt91D.a(pio.o)
                0x200231c4                PIO_Configure
 .text.PIO_Set  0x200233b0       0x3c D:/Internship 2018/OBC Projects/SecondProject/satellite-subsystems/demo/../..//hal/at91/lib\libAt91D.a(pio.o)
                0x200233b0                PIO_Set
 .text.PIO_Clear
                0x200233ec       0x3c D:/Internship 2018/OBC Projects/SecondProject/satellite-subsystems/demo/../..//hal/at91/lib\libAt91D.a(pio.o)
                0x200233ec                PIO_Clear
 .text.PIO_Get  0x20023428       0x9c D:/Internship 2018/OBC Projects/SecondProject/satellite-subsystems/demo/../..//hal/at91/lib\libAt91D.a(pio.o)
                0x20023428                PIO_Get
 .text.PIT_Init
                0x200234c4       0x68 D:/Internship 2018/OBC Projects/SecondProject/satellite-subsystems/demo/../..//hal/at91/lib\libAt91D.a(pit.o)
                0x200234c4                PIT_Init
 .text.PIT_Enable
                0x2002352c       0x2c D:/Internship 2018/OBC Projects/SecondProject/satellite-subsystems/demo/../..//hal/at91/lib\libAt91D.a(pit.o)
                0x2002352c                PIT_Enable
 .text.PIT_EnableIT
                0x20023558       0x2c D:/Internship 2018/OBC Projects/SecondProject/satellite-subsystems/demo/../..//hal/at91/lib\libAt91D.a(pit.o)
                0x20023558                PIT_EnableIT
 .text.PMC_EnablePeripheral
                0x20023584       0xa4 D:/Internship 2018/OBC Projects/SecondProject/satellite-subsystems/demo/../..//hal/at91/lib\libAt91D.a(pmc.o)
                0x20023584                PMC_EnablePeripheral
 .text.PMC_DisablePeripheral
                0x20023628       0xa4 D:/Internship 2018/OBC Projects/SecondProject/satellite-subsystems/demo/../..//hal/at91/lib\libAt91D.a(pmc.o)
                0x20023628                PMC_DisablePeripheral
 .text.SPI_Enable
                0x200236cc       0x28 D:/Internship 2018/OBC Projects/SecondProject/satellite-subsystems/demo/../..//hal/at91/lib\libAt91D.a(spi_at91.o)
                0x200236cc                SPI_Enable
 .text.SPI_Disable
                0x200236f4       0x28 D:/Internship 2018/OBC Projects/SecondProject/satellite-subsystems/demo/../..//hal/at91/lib\libAt91D.a(spi_at91.o)
                0x200236f4                SPI_Disable
 .text.SPI_Configure
                0x2002371c       0x6c D:/Internship 2018/OBC Projects/SecondProject/satellite-subsystems/demo/../..//hal/at91/lib\libAt91D.a(spi_at91.o)
                0x2002371c                SPI_Configure
 .text.SPI_ConfigureNPCS
                0x20023788       0x38 D:/Internship 2018/OBC Projects/SecondProject/satellite-subsystems/demo/../..//hal/at91/lib\libAt91D.a(spi_at91.o)
                0x20023788                SPI_ConfigureNPCS
 .text.TWI_ConfigureMaster
                0x200237c0      0x2a0 D:/Internship 2018/OBC Projects/SecondProject/satellite-subsystems/demo/../..//hal/at91/lib\libAt91D.a(twi_at91.o)
                0x200237c0                TWI_ConfigureMaster
 .text.TWI_GetMaskedStatus
                0x20023a60       0x78 D:/Internship 2018/OBC Projects/SecondProject/satellite-subsystems/demo/../..//hal/at91/lib\libAt91D.a(twi_at91.o)
                0x20023a60                TWI_GetMaskedStatus
 .text.disableCaches
                0x20023ad8       0x18 D:/Internship 2018/OBC Projects/SecondProject/satellite-subsystems/demo/../..//hal/at91/lib\libAt91D.a(ExitHandler.o)
 .text.restart  0x20023af0       0x28 D:/Internship 2018/OBC Projects/SecondProject/satellite-subsystems/demo/../..//hal/at91/lib\libAt91D.a(ExitHandler.o)
                0x20023af0                restart
 .text.restartPrefetchAbort
                0x20023b18       0x28 D:/Internship 2018/OBC Projects/SecondProject/satellite-subsystems/demo/../..//hal/at91/lib\libAt91D.a(ExitHandler.o)
                0x20023b18                restartPrefetchAbort
 .text.restartDataAbort
                0x20023b40       0x28 D:/Internship 2018/OBC Projects/SecondProject/satellite-subsystems/demo/../..//hal/at91/lib\libAt91D.a(ExitHandler.o)
                0x20023b40                restartDataAbort
 .text.defaultSpuriousHandler
                0x20023b68       0x18 D:/Internship 2018/OBC Projects/SecondProject/satellite-subsystems/demo/../..//hal/at91/lib\libAt91D.a(board_lowlevel.o)
                0x20023b68                defaultSpuriousHandler
 .text.defaultFiqHandler
                0x20023b80       0x18 D:/Internship 2018/OBC Projects/SecondProject/satellite-subsystems/demo/../..//hal/at91/lib\libAt91D.a(board_lowlevel.o)
                0x20023b80                defaultFiqHandler
 .text.defaultIrqHandler
                0x20023b98       0x18 D:/Internship 2018/OBC Projects/SecondProject/satellite-subsystems/demo/../..//hal/at91/lib\libAt91D.a(board_lowlevel.o)
                0x20023b98                defaultIrqHandler
 .text.LowLevelInit
                0x20023bb0       0xf4 D:/Internship 2018/OBC Projects/SecondProject/satellite-subsystems/demo/../..//hal/at91/lib\libAt91D.a(board_lowlevel.o)
                0x20023bb0                LowLevelInit
 .text.BOARD_RemapRam
                0x20023ca4       0x24 D:/Internship 2018/OBC Projects/SecondProject/satellite-subsystems/demo/../..//hal/at91/lib\libAt91D.a(board_memories.o)
                0x20023ca4                BOARD_RemapRam
 .text.__errno  0x20023cc8       0x10 c:/isis/application/toolchain/bin/../lib/gcc/arm-none-eabi/4.7.4/../../../../arm-none-eabi/lib\libc_s.a(lib_a-errno.o)
                0x20023cc8                __errno
 .text.printf   0x20023cd8       0x50 c:/isis/application/toolchain/bin/../lib/gcc/arm-none-eabi/4.7.4/../../../../arm-none-eabi/lib\libc_s.a(lib_a-printf.o)
                0x20023cd8                iprintf
                0x20023cd8                printf
 .text.puts     0x20023d28       0x64 c:/isis/application/toolchain/bin/../lib/gcc/arm-none-eabi/4.7.4/../../../../arm-none-eabi/lib\libc_s.a(lib_a-puts.o)
                0x20023d28                puts
 .text.snprintf
                0x20023d8c       0x98 c:/isis/application/toolchain/bin/../lib/gcc/arm-none-eabi/4.7.4/../../../../arm-none-eabi/lib\libc_s.a(lib_a-snprintf.o)
                0x20023d8c                sniprintf
                0x20023d8c                snprintf
 .text.__sfputc_r
                0x20023e24       0x50 c:/isis/application/toolchain/bin/../lib/gcc/arm-none-eabi/4.7.4/../../../../arm-none-eabi/lib\libc_s.a(lib_a-vfprintf.o)
                0x20023e24                __sfputc_r
 .text._vfprintf_r
                0x20023e74      0x360 c:/isis/application/toolchain/bin/../lib/gcc/arm-none-eabi/4.7.4/../../../../arm-none-eabi/lib\libc_s.a(lib_a-vfprintf.o)
                0x20023e74                _vfprintf_r
                0x20023e74                _vfiprintf_r
 .text.__swbuf_r
                0x200241d4      0x138 c:/isis/application/toolchain/bin/../lib/gcc/arm-none-eabi/4.7.4/../../../../arm-none-eabi/lib\libc_s.a(lib_a-wbuf.o)
                0x200241d4                __swbuf_r
 .text.__swsetup_r
                0x2002430c      0x154 c:/isis/application/toolchain/bin/../lib/gcc/arm-none-eabi/4.7.4/../../../../arm-none-eabi/lib\libc_s.a(lib_a-wsetup.o)
                0x2002430c                __swsetup_r
 .text._fflush_r
                0x20024460      0x244 c:/isis/application/toolchain/bin/../lib/gcc/arm-none-eabi/4.7.4/../../../../arm-none-eabi/lib\libc_s.a(lib_a-fflush.o)
                0x20024460                _fflush_r
 .text._cleanup_r
                0x200246a4       0x5c c:/isis/application/toolchain/bin/../lib/gcc/arm-none-eabi/4.7.4/../../../../arm-none-eabi/lib\libc_s.a(lib_a-findfp.o)
                0x200246a4                _cleanup_r
 .text.std.isra.0
                0x20024700       0x7c c:/isis/application/toolchain/bin/../lib/gcc/arm-none-eabi/4.7.4/../../../../arm-none-eabi/lib\libc_s.a(lib_a-findfp.o)
 .text.__sfmoreglue
                0x2002477c       0x44 c:/isis/application/toolchain/bin/../lib/gcc/arm-none-eabi/4.7.4/../../../../arm-none-eabi/lib\libc_s.a(lib_a-findfp.o)
                0x2002477c                __sfmoreglue
 .text.__sinit  0x200247c0       0x90 c:/isis/application/toolchain/bin/../lib/gcc/arm-none-eabi/4.7.4/../../../../arm-none-eabi/lib\libc_s.a(lib_a-findfp.o)
                0x200247c0                __sinit
 .text.__sfp    0x20024850       0xdc c:/isis/application/toolchain/bin/../lib/gcc/arm-none-eabi/4.7.4/../../../../arm-none-eabi/lib\libc_s.a(lib_a-findfp.o)
                0x20024850                __sfp
 .text.__smakebuf_r
                0x2002492c       0xf8 c:/isis/application/toolchain/bin/../lib/gcc/arm-none-eabi/4.7.4/../../../../arm-none-eabi/lib\libc_s.a(lib_a-makebuf.o)
                0x2002492c                __smakebuf_r
 .text._putc_r  0x20024a24       0xd0 c:/isis/application/toolchain/bin/../lib/gcc/arm-none-eabi/4.7.4/../../../../arm-none-eabi/lib\libc_s.a(lib_a-putc.o)
                0x20024a24                _putc_r
 .text.__sread  0x20024af4       0x34 c:/isis/application/toolchain/bin/../lib/gcc/arm-none-eabi/4.7.4/../../../../arm-none-eabi/lib\libc_s.a(lib_a-stdio.o)
                0x20024af4                __sread
 .text.__swrite
                0x20024b28       0x54 c:/isis/application/toolchain/bin/../lib/gcc/arm-none-eabi/4.7.4/../../../../arm-none-eabi/lib\libc_s.a(lib_a-stdio.o)
                0x20024b28                __swrite
 .text.__sseek  0x20024b7c       0x34 c:/isis/application/toolchain/bin/../lib/gcc/arm-none-eabi/4.7.4/../../../../arm-none-eabi/lib\libc_s.a(lib_a-stdio.o)
                0x20024b7c                __sseek
 .text.__sclose
                0x20024bb0       0x14 c:/isis/application/toolchain/bin/../lib/gcc/arm-none-eabi/4.7.4/../../../../arm-none-eabi/lib\libc_s.a(lib_a-stdio.o)
                0x20024bb0                __sclose
 .text._write_r
                0x20024bc4       0x44 c:/isis/application/toolchain/bin/../lib/gcc/arm-none-eabi/4.7.4/../../../../arm-none-eabi/lib\libc_s.a(lib_a-writer.o)
                0x20024bc4                _write_r
 .text._close_r
                0x20024c08       0x3c c:/isis/application/toolchain/bin/../lib/gcc/arm-none-eabi/4.7.4/../../../../arm-none-eabi/lib\libc_s.a(lib_a-closer.o)
                0x20024c08                _close_r
 .text._fstat_r
                0x20024c44       0x40 c:/isis/application/toolchain/bin/../lib/gcc/arm-none-eabi/4.7.4/../../../../arm-none-eabi/lib\libc_s.a(lib_a-fstatr.o)
                0x20024c44                _fstat_r
 .text._isatty_r
                0x20024c84       0x3c c:/isis/application/toolchain/bin/../lib/gcc/arm-none-eabi/4.7.4/../../../../arm-none-eabi/lib\libc_s.a(lib_a-isattyr.o)
                0x20024c84                _isatty_r
 .text._lseek_r
                0x20024cc0       0x44 c:/isis/application/toolchain/bin/../lib/gcc/arm-none-eabi/4.7.4/../../../../arm-none-eabi/lib\libc_s.a(lib_a-lseekr.o)
                0x20024cc0                _lseek_r
 .text._read_r  0x20024d04       0x44 c:/isis/application/toolchain/bin/../lib/gcc/arm-none-eabi/4.7.4/../../../../arm-none-eabi/lib\libc_s.a(lib_a-readr.o)
                0x20024d04                _read_r
 .text._read_r.stub
                0x20024d48       0x10 linker stubs
 *(.rodata)
 .rodata        0x20024d58      0xf00 ./src/Demos/GomEPSdemo.o
 .rodata        0x20025c58      0x354 ./src/Demos/IsisAntSdemo.o
 .rodata        0x20025fac     0x4ff0 ./src/Demos/IsisEPSdemo.o
 .rodata        0x2002af9c       0x94 ./src/Demos/IsisMTQv1demo.o
 .rodata        0x2002b030     0x397c ./src/Demos/IsisMTQv2demo.o
 .rodata        0x2002e9ac       0x98 ./src/Demos/IsisSPdemo.o
 .rodata        0x2002ea44      0x138 ./src/Demos/IsisSPv2demo.o
 .rodata        0x2002eb7c      0x3fc ./src/Demos/IsisTRXUVdemo.o
 .rodata        0x2002ef78      0x478 ./src/Demos/IsisTRXVUdemo.o
 .rodata        0x2002f3f0      0x7a8 ./src/Demos/IsisTxSdemo.o
 .rodata        0x2002fb98      0x510 ./src/Demos/common.o
 .rodata        0x200300a8      0x328 ./src/main.o
 .rodata        0x200303d0       0x20 D:/Internship 2018/OBC Projects/SecondProject/satellite-subsystems/demo/..//satellite-subsystems/lib\libSatelliteSubsystemsD.a(GomEPS.o)
 .rodata        0x200303f0       0x80 D:/Internship 2018/OBC Projects/SecondProject/satellite-subsystems/demo/..//satellite-subsystems/lib\libSatelliteSubsystemsD.a(IsisEPS.o)
 .rodata        0x20030470      0x26c D:/Internship 2018/OBC Projects/SecondProject/satellite-subsystems/demo/..//satellite-subsystems/lib\libSatelliteSubsystemsD.a(IsisMTQv2.o)
 .rodata        0x200306dc       0x30 D:/Internship 2018/OBC Projects/SecondProject/satellite-subsystems/demo/..//satellite-subsystems/lib\libSatelliteSubsystemsD.a(IsisSolarPanelv2.o)
 .rodata        0x2003070c       0x24 D:/Internship 2018/OBC Projects/SecondProject/satellite-subsystems/demo/..//satellite-subsystems/lib\libSatelliteSubsystemsD.a(version.o)
                0x2003070c                SatelliteSubsystemsCompileDate
                0x20030718                SatelliteSubsystemsCompileTime
                0x20030724                SatelliteSubsystemsVersionMajor
                0x20030728                SatelliteSubsystemsVersionMinor
                0x2003072c                SatelliteSubsystemsVersionRevision
 .rodata        0x20030730       0xf4 D:/Internship 2018/OBC Projects/SecondProject/satellite-subsystems/demo/../..//hal/hal/lib\libHALD.a(I2C.o)
 .rodata        0x20030824       0x30 D:/Internship 2018/OBC Projects/SecondProject/satellite-subsystems/demo/../..//hal/hal/lib\libHALD.a(LED.o)
 .rodata        0x20030854      0x324 D:/Internship 2018/OBC Projects/SecondProject/satellite-subsystems/demo/../..//hal/hal/lib\libHALD.a(SPI.o)
 .rodata        0x20030b78        0xc D:/Internship 2018/OBC Projects/SecondProject/satellite-subsystems/demo/../..//hal/hal/lib\libHALD.a(WatchDogTimerNoOS.o)
 .rodata        0x20030b84       0x14 D:/Internship 2018/OBC Projects/SecondProject/satellite-subsystems/demo/../..//hal/hal/lib\libHALD.a(WatchDogTimerOS.o)
 .rodata        0x20030b98       0xcc D:/Internship 2018/OBC Projects/SecondProject/satellite-subsystems/demo/../..//hal/hal/lib\libHALD.a(util.o)
 .rodata        0x20030c64       0x24 D:/Internship 2018/OBC Projects/SecondProject/satellite-subsystems/demo/../..//hal/hal/lib\libHALD.a(version.o)
                0x20030c64                HalCompileDate
                0x20030c70                HalCompileTime
                0x20030c7c                HalVersionMajor
                0x20030c80                HalVersionMinor
                0x20030c84                HalVersionRevision
 .rodata        0x20030c88       0x40 D:/Internship 2018/OBC Projects/SecondProject/satellite-subsystems/demo/../..//hal/freertos/lib\libFreeRTOSD.a(queue.o)
 .rodata        0x20030cc8       0x48 D:/Internship 2018/OBC Projects/SecondProject/satellite-subsystems/demo/../..//hal/freertos/lib\libFreeRTOSD.a(tasks.o)
 .rodata        0x20030d10       0x58 D:/Internship 2018/OBC Projects/SecondProject/satellite-subsystems/demo/../..//hal/freertos/lib\libFreeRTOSD.a(hooks.o)
 .rodata        0x20030d68       0x3c D:/Internship 2018/OBC Projects/SecondProject/satellite-subsystems/demo/../..//hal/at91/lib\libAt91D.a(syscalls.o)
 .rodata        0x20030da4      0x158 D:/Internship 2018/OBC Projects/SecondProject/satellite-subsystems/demo/../..//hal/at91/lib\libAt91D.a(cp15.o)
 .rodata        0x20030efc      0x118 D:/Internship 2018/OBC Projects/SecondProject/satellite-subsystems/demo/../..//hal/at91/lib\libAt91D.a(pmc.o)
 .rodata        0x20031014       0x98 D:/Internship 2018/OBC Projects/SecondProject/satellite-subsystems/demo/../..//hal/at91/lib\libAt91D.a(twi_at91.o)
 .rodata        0x200310ac       0x8c D:/Internship 2018/OBC Projects/SecondProject/satellite-subsystems/demo/../..//hal/at91/lib\libAt91D.a(ExitHandler.o)
 .rodata        0x20031138       0xa8 D:/Internship 2018/OBC Projects/SecondProject/satellite-subsystems/demo/../..//hal/at91/lib\libAt91D.a(board_lowlevel.o)
 *(.rodata*)
 .rodata.str1.1
                0x200311e0       0x10 c:/isis/application/toolchain/bin/../lib/gcc/arm-none-eabi/4.7.4/../../../../arm-none-eabi/lib\libc_s.a(lib_a-vfprintf_float.o)
 .rodata.str1.1
                0x200311f0       0x22 c:/isis/application/toolchain/bin/../lib/gcc/arm-none-eabi/4.7.4/../../../../arm-none-eabi/lib\libc_s.a(lib_a-vfprintf_i.o)
 .rodata.str1.1
                0x20031212        0x5 c:/isis/application/toolchain/bin/../lib/gcc/arm-none-eabi/4.7.4/../../../../arm-none-eabi/lib\libc_s.a(lib_a-vfscanf_float.o)
 .rodata.str1.1
                0x20031217        0xf c:/isis/application/toolchain/bin/../lib/gcc/arm-none-eabi/4.7.4/../../../../arm-none-eabi/lib\libc_s.a(lib_a-dtoa.o)
 .rodata.str1.1
                0x20031226        0xa c:/isis/application/toolchain/bin/../lib/gcc/arm-none-eabi/4.7.4/../../../../arm-none-eabi/lib\libc_s.a(lib_a-locale.o)
                                  0xb (size before relaxing)
 .rodata.__mprec_tens
                0x20031230       0xc8 c:/isis/application/toolchain/bin/../lib/gcc/arm-none-eabi/4.7.4/../../../../arm-none-eabi/lib\libc_s.a(lib_a-mprec.o)
                0x20031230                __mprec_tens
 .rodata.p05.5252
                0x200312f8        0xc c:/isis/application/toolchain/bin/../lib/gcc/arm-none-eabi/4.7.4/../../../../arm-none-eabi/lib\libc_s.a(lib_a-mprec.o)
 *fill*         0x20031304        0x4 00
 .rodata.__mprec_bigtens
                0x20031308       0x28 c:/isis/application/toolchain/bin/../lib/gcc/arm-none-eabi/4.7.4/../../../../arm-none-eabi/lib\libc_s.a(lib_a-mprec.o)
                0x20031308                __mprec_bigtens
 .rodata.str1.1
                0x00000000        0xa c:/isis/application/toolchain/bin/../lib/gcc/arm-none-eabi/4.7.4/../../../../arm-none-eabi/lib\libc_s.a(lib_a-strtod.o)
                                  0xc (size before relaxing)
 .rodata.tinytens
                0x20031330       0x28 c:/isis/application/toolchain/bin/../lib/gcc/arm-none-eabi/4.7.4/../../../../arm-none-eabi/lib\libc_s.a(lib_a-strtod.o)
 .rodata.str1.1
                0x20031358       0x11 c:/isis/application/toolchain/bin/../lib/gcc/arm-none-eabi/4.7.4/../../../../arm-none-eabi/lib\libc_s.a(lib_a-svfprintf.o)
 .rodata._ctype_
                0x20031369      0x101 c:/isis/application/toolchain/bin/../lib/gcc/arm-none-eabi/4.7.4/../../../../arm-none-eabi/lib\libc_s.a(lib_a-ctype_.o)
                0x20031369                _ctype_
 .rodata.str1.1
                0x2003146a        0xb c:/isis/application/toolchain/bin/../lib/gcc/arm-none-eabi/4.7.4/../../../../arm-none-eabi/lib\libc_s.a(lib_a-gdtoa-gethex.o)
                                 0x19 (size before relaxing)
 .rodata.str1.1
                0x00000000        0x2 c:/isis/application/toolchain/bin/../lib/gcc/arm-none-eabi/4.7.4/../../../../arm-none-eabi/lib\libc_s.a(lib_a-impure.o)
 *fill*         0x20031475        0x3 00
 .rodata._global_impure_ptr
                0x20031478        0x4 c:/isis/application/toolchain/bin/../lib/gcc/arm-none-eabi/4.7.4/../../../../arm-none-eabi/lib\libc_s.a(lib_a-impure.o)
                0x20031478                _global_impure_ptr
 .rodata.str1.4
                0x2003147c        0x4 c:/isis/application/toolchain/bin/../lib/gcc/arm-none-eabi/4.7.4/../../../../arm-none-eabi/lib\libm.a(lib_a-w_exp.o)
 .rodata.halF   0x20031480       0x10 c:/isis/application/toolchain/bin/../lib/gcc/arm-none-eabi/4.7.4/../../../../arm-none-eabi/lib\libm.a(lib_a-e_exp.o)
 .rodata.ln2LO  0x20031490       0x10 c:/isis/application/toolchain/bin/../lib/gcc/arm-none-eabi/4.7.4/../../../../arm-none-eabi/lib\libm.a(lib_a-e_exp.o)
 .rodata.ln2HI  0x200314a0       0x10 c:/isis/application/toolchain/bin/../lib/gcc/arm-none-eabi/4.7.4/../../../../arm-none-eabi/lib\libm.a(lib_a-e_exp.o)
 .rodata.str1.1
                0x00000000       0x11 c:/isis/application/toolchain/bin/../lib/gcc/arm-none-eabi/4.7.4/../../../../arm-none-eabi/lib\libc_s.a(lib_a-vfprintf.o)
 .rodata.__sf_fake_stdin
                0x200314b0       0x20 c:/isis/application/toolchain/bin/../lib/gcc/arm-none-eabi/4.7.4/../../../../arm-none-eabi/lib\libc_s.a(lib_a-findfp.o)
                0x200314b0                __sf_fake_stdin
 .rodata.__sf_fake_stdout
                0x200314d0       0x20 c:/isis/application/toolchain/bin/../lib/gcc/arm-none-eabi/4.7.4/../../../../arm-none-eabi/lib\libc_s.a(lib_a-findfp.o)
                0x200314d0                __sf_fake_stdout
 .rodata.__sf_fake_stderr
                0x200314f0       0x20 c:/isis/application/toolchain/bin/../lib/gcc/arm-none-eabi/4.7.4/../../../../arm-none-eabi/lib\libc_s.a(lib_a-findfp.o)
                0x200314f0                __sf_fake_stderr
 *(.rodata.*)
 *(.glue_7)
 .glue_7        0x00000000        0x0 linker stubs
 *(.glue_7t)
 .glue_7t       0x00000000        0x0 linker stubs
 *(.vfp11_veneer)
 .vfp11_veneer  0x00000000        0x0 linker stubs
 *(.v4_bx)
 .v4_bx         0x00000000        0x0 linker stubs
 *(.data)
 .data          0x20031510        0x4 ./src/Demos/IsisTRXUVdemo.o
 .data          0x20031514       0x10 D:/Internship 2018/OBC Projects/SecondProject/satellite-subsystems/demo/..//satellite-subsystems/lib\libSatelliteSubsystemsD.a(IsisSolarPanel.o)
 .data          0x20031524       0x28 D:/Internship 2018/OBC Projects/SecondProject/satellite-subsystems/demo/..//satellite-subsystems/lib\libSatelliteSubsystemsD.a(IsisSolarPanelv2.o)
 .data          0x2003154c        0x8 D:/Internship 2018/OBC Projects/SecondProject/satellite-subsystems/demo/../..//hal/hal/lib\libHALD.a(I2C.o)
 .data          0x20031554        0xc D:/Internship 2018/OBC Projects/SecondProject/satellite-subsystems/demo/../..//hal/hal/lib\libHALD.a(SPI.o)
 .data          0x20031560        0x4 D:/Internship 2018/OBC Projects/SecondProject/satellite-subsystems/demo/../..//hal/freertos/lib\libFreeRTOSD.a(tasks.o)
 .data          0x20031564        0x4 D:/Internship 2018/OBC Projects/SecondProject/satellite-subsystems/demo/../..//hal/freertos/lib\libFreeRTOSD.a(port.o)
                0x20031564                ulCriticalNesting
 *(.data.*)
 .data.lconv    0x20031568       0x38 c:/isis/application/toolchain/bin/../lib/gcc/arm-none-eabi/4.7.4/../../../../arm-none-eabi/lib\libc_s.a(lib_a-locale.o)
 .data.fpi.5208
                0x200315a0       0x14 c:/isis/application/toolchain/bin/../lib/gcc/arm-none-eabi/4.7.4/../../../../arm-none-eabi/lib\libc_s.a(lib_a-strtod.o)
 .data.fpinan.5244
                0x200315b4       0x14 c:/isis/application/toolchain/bin/../lib/gcc/arm-none-eabi/4.7.4/../../../../arm-none-eabi/lib\libc_s.a(lib_a-strtod.o)
 .data.__ctype_ptr__
                0x200315c8        0x4 c:/isis/application/toolchain/bin/../lib/gcc/arm-none-eabi/4.7.4/../../../../arm-none-eabi/lib\libc_s.a(lib_a-ctype_.o)
                0x200315c8                __ctype_ptr__
 .data.impure_data
                0x200315cc       0x64 c:/isis/application/toolchain/bin/../lib/gcc/arm-none-eabi/4.7.4/../../../../arm-none-eabi/lib\libc_s.a(lib_a-impure.o)
 .data._impure_ptr
                0x20031630        0x4 c:/isis/application/toolchain/bin/../lib/gcc/arm-none-eabi/4.7.4/../../../../arm-none-eabi/lib\libc_s.a(lib_a-impure.o)
                0x20031630                _impure_ptr
 .data.__fdlib_version
                0x20031634        0x1 c:/isis/application/toolchain/bin/../lib/gcc/arm-none-eabi/4.7.4/../../../../arm-none-eabi/lib\libm.a(lib_a-s_lib_ver.o)
                0x20031634                __fdlib_version
 *(.dyn)
 *(.iplt)
 .iplt          0x00000000        0x0 c:/isis/application/toolchain/bin/../lib/gcc/arm-none-eabi/4.7.4/../../../../arm-none-eabi/lib\libc_s.a(lib_a-vfprintf_float.o)
 *(.igot)
 *(.igot.plt)
 .igot.plt      0x00000000        0x0 c:/isis/application/toolchain/bin/../lib/gcc/arm-none-eabi/4.7.4/../../../../arm-none-eabi/lib\libc_s.a(lib_a-vfprintf_float.o)
 *(.rel.dyn)
 *(.rel.iplt)
 .rel.iplt      0x00000000        0x0 c:/isis/application/toolchain/bin/../lib/gcc/arm-none-eabi/4.7.4/../../../../arm-none-eabi/lib\libc_s.a(lib_a-vfprintf_float.o)
                0x20031638                . = ALIGN (0x4)
 *fill*         0x20031635        0x3 00
                0x20031638                _efixed = .

.ARM.exidx      0x20031638        0x0
 *(.ARM.exidx)
                0x20031638                _eexidx = .

.ARM.extab      0x20031638        0x0
 *(.ARM.extab)
                0x20031638                _eextab = .

.prerelocate    0x00000000        0x0 load address 0x20031638
                0x00000000                . = ALIGN (0x4)
                0x00000000                _sprerelocate = .
                0x00000000                . = ALIGN (0x4)
                0x00000000                _eprerelocate = .

.postrelocate   0x00200000     0x1c28 load address 0x20031638
                0x00200000                . = ALIGN (0x4)
                0x00200000                _spostrelocate = .
 *(.vectors)
 .vectors       0x00200000       0xd4 D:/Internship 2018/OBC Projects/SecondProject/satellite-subsystems/demo/../..//hal/at91/lib\libAt91D.a(board_cstartup.o)
 *(.sramfunc)
 .sramfunc      0x002000d4      0xe1c D:/Internship 2018/OBC Projects/SecondProject/satellite-subsystems/demo/../..//hal/hal/lib\libHALD.a(I2C.o)
                0x0020098c                ISR_I2Cmaster
                0x00200d3c                taskI2Cregulator
 .sramfunc      0x00200ef0      0xa58 D:/Internship 2018/OBC Projects/SecondProject/satellite-subsystems/demo/../..//hal/hal/lib\libHALD.a(SPI.o)
                0x00200ef0                taskSPI0regulator
                0x00201398                taskSPI1regulator
                0x0020171c                ISR_SPI0master
                0x002017dc                ISR_SPI1master
 .sramfunc      0x00201948       0x98 D:/Internship 2018/OBC Projects/SecondProject/satellite-subsystems/demo/../..//hal/hal/lib\libHALD.a(WatchDogTimerNoOS.o)
                0x00201948                WDT_kickEveryNcalls
                0x00201990                WDT_forceKick
 .sramfunc      0x002019e0       0x50 D:/Internship 2018/OBC Projects/SecondProject/satellite-subsystems/demo/../..//hal/hal/lib\libHALD.a(WatchDogTimerOS.o)
                0x002019e0                taskWatchdogKick
 .sramfunc      0x00201a30       0xf0 D:/Internship 2018/OBC Projects/SecondProject/satellite-subsystems/demo/../..//hal/freertos/lib\libFreeRTOSD.a(port.o)
                0x00201a30                vPortTickISR
                0x00201a6c                vPortYieldProcessor
 .sramfunc      0x00201b20       0x48 D:/Internship 2018/OBC Projects/SecondProject/satellite-subsystems/demo/../..//hal/at91/lib\libAt91D.a(ExitHandler.o)
                0x00201b20                gracefulReset
 .sramfunc.stub
                0x00201b68       0xc0 linker stubs
 *(.ramfunc)
                0x00201c28                . = ALIGN (0x4)
                0x00201c28                _epostrelocate = .

.sramdata       0x00300000        0xc load address 0x20033260
                0x00300000                . = ALIGN (0x4)
                0x00300000                _ssramdata = .
 *(.sramdata)
 .sramdata      0x00300000        0x4 D:/Internship 2018/OBC Projects/SecondProject/satellite-subsystems/demo/../..//hal/hal/lib\libHALD.a(WatchDogTimerNoOS.o)
 .sramdata      0x00300004        0x8 D:/Internship 2018/OBC Projects/SecondProject/satellite-subsystems/demo/../..//hal/hal/lib\libHALD.a(WatchDogTimerOS.o)
                0x0030000c                . = ALIGN (0x4)
                0x0030000c                _esramdata = .

.srambss        0x0030000c        0x0
                0x0030000c                . = ALIGN (0x4)
                0x0030000c                _ssrambss = .
 *(.srambss)
                0x0030000c                . = ALIGN (0x4)
                0x0030000c                _esrambss = .

.bss            0x20031638      0x41c
                0x20031638                _szero = .
 *(.bss)
 .bss           0x20031638        0x4 ./src/Demos/IsisEPSdemo.o
 .bss           0x2003163c        0x4 ./src/Demos/IsisMTQv2demo.o
 .bss           0x20031640        0x4 ./src/Demos/IsisTRXUVdemo.o
 .bss           0x20031644        0x4 ./src/Demos/IsisTRXVUdemo.o
 .bss           0x20031648        0x4 ./src/Demos/IsisTxSdemo.o
 .bss           0x2003164c        0x8 D:/Internship 2018/OBC Projects/SecondProject/satellite-subsystems/demo/..//satellite-subsystems/lib\libSatelliteSubsystemsD.a(GomEPS.o)
 .bss           0x20031654        0x8 D:/Internship 2018/OBC Projects/SecondProject/satellite-subsystems/demo/..//satellite-subsystems/lib\libSatelliteSubsystemsD.a(IsisAntS.o)
 .bss           0x2003165c        0x8 D:/Internship 2018/OBC Projects/SecondProject/satellite-subsystems/demo/..//satellite-subsystems/lib\libSatelliteSubsystemsD.a(IsisEPS.o)
 .bss           0x20031664        0x8 D:/Internship 2018/OBC Projects/SecondProject/satellite-subsystems/demo/..//satellite-subsystems/lib\libSatelliteSubsystemsD.a(IsisMTQv1.o)
 .bss           0x2003166c        0x8 D:/Internship 2018/OBC Projects/SecondProject/satellite-subsystems/demo/..//satellite-subsystems/lib\libSatelliteSubsystemsD.a(IsisMTQv2.o)
 .bss           0x20031674        0x1 D:/Internship 2018/OBC Projects/SecondProject/satellite-subsystems/demo/..//satellite-subsystems/lib\libSatelliteSubsystemsD.a(IsisSolarPanelv2.o)
 *fill*         0x20031675        0x3 00
 .bss           0x20031678        0x8 D:/Internship 2018/OBC Projects/SecondProject/satellite-subsystems/demo/..//satellite-subsystems/lib\libSatelliteSubsystemsD.a(IsisTRXUV.o)
 .bss           0x20031680        0x8 D:/Internship 2018/OBC Projects/SecondProject/satellite-subsystems/demo/..//satellite-subsystems/lib\libSatelliteSubsystemsD.a(IsisTRXVU.o)
 .bss           0x20031688        0x8 D:/Internship 2018/OBC Projects/SecondProject/satellite-subsystems/demo/..//satellite-subsystems/lib\libSatelliteSubsystemsD.a(IsisTxS.o)
 .bss           0x20031690       0x54 D:/Internship 2018/OBC Projects/SecondProject/satellite-subsystems/demo/../..//hal/hal/lib\libHALD.a(I2C.o)
                0x20031698                RescheduleFlag
 .bss           0x200316e4       0x10 D:/Internship 2018/OBC Projects/SecondProject/satellite-subsystems/demo/../..//hal/hal/lib\libHALD.a(LED.o)
 .bss           0x200316f4       0x50 D:/Internship 2018/OBC Projects/SecondProject/satellite-subsystems/demo/../..//hal/hal/lib\libHALD.a(SPI.o)
 .bss           0x20031744        0x8 D:/Internship 2018/OBC Projects/SecondProject/satellite-subsystems/demo/../..//hal/hal/lib\libHALD.a(WatchDogTimerOS.o)
 .bss           0x2003174c       0xfc D:/Internship 2018/OBC Projects/SecondProject/satellite-subsystems/demo/../..//hal/freertos/lib\libFreeRTOSD.a(tasks.o)
                0x2003174c                pxCurrentTCB
 .bss           0x20031848        0x4 D:/Internship 2018/OBC Projects/SecondProject/satellite-subsystems/demo/../..//hal/at91/lib\libAt91D.a(syscalls.o)
 *(.bss.*)
 .bss.__malloc_free_list
                0x2003184c        0x4 c:/isis/application/toolchain/bin/../lib/gcc/arm-none-eabi/4.7.4/../../../../arm-none-eabi/lib\libc_s.a(lib_a-mallocr.o)
                0x2003184c                __malloc_free_list
 *(COMMON)
 COMMON         0x20031850      0x100 c:/isis/application/toolchain/bin/../lib/gcc/arm-none-eabi/4.7.4/../../../../arm-none-eabi/lib\libc_s.a(lib_a-gdtoa-gethex.o)
                0x20031850                __hexdig
 COMMON         0x20031950        0x4 c:/isis/application/toolchain/bin/../lib/gcc/arm-none-eabi/4.7.4/../../../../arm-none-eabi/lib\libc_s.a(lib_a-reent.o)
                0x20031950                errno
 COMMON         0x20031954      0x100 D:/Internship 2018/OBC Projects/SecondProject/satellite-subsystems/demo/../..//hal/freertos/lib\libFreeRTOSD.a(queue.o)
                0x20031954                xQueueRegistry
 *(COMMON.*)
                0x20031a54                . = ALIGN (0x4)
                0x20031a54                _ezero = .
                0x20031a54                _sheap_ = .
                0x21700000                _eheap_ = 0x21700000
                0x21fffc00                _sstack = 0x21fffc00
                0x20031a54                end = .
OUTPUT(satellite-subsystems-demo.elf elf32-littlearm)

.ARM.attributes
                0x00000000       0x30
 .ARM.attributes
                0x00000000       0x30 c:/isis/application/toolchain/bin/../lib/gcc/arm-none-eabi/4.7.4/../../../../arm-none-eabi/lib\libc_s.a(lib_a-vfprintf_float.o)
 .ARM.attributes
                0x00000030       0x30 c:/isis/application/toolchain/bin/../lib/gcc/arm-none-eabi/4.7.4/../../../../arm-none-eabi/lib\libc_s.a(lib_a-vfprintf_i.o)
 .ARM.attributes
                0x00000060       0x30 c:/isis/application/toolchain/bin/../lib/gcc/arm-none-eabi/4.7.4/../../../../arm-none-eabi/lib\libc_s.a(lib_a-vfscanf_float.o)
 .ARM.attributes
                0x00000090       0x30 c:/isis/application/toolchain/bin/../lib/gcc/arm-none-eabi/4.7.4/../../../../arm-none-eabi/lib\libc_s.a(lib_a-dtoa.o)
 .ARM.attributes
                0x000000c0       0x30 c:/isis/application/toolchain/bin/../lib/gcc/arm-none-eabi/4.7.4/../../../../arm-none-eabi/lib\libc_s.a(lib_a-locale.o)
 .ARM.attributes
                0x000000f0       0x30 c:/isis/application/toolchain/bin/../lib/gcc/arm-none-eabi/4.7.4/../../../../arm-none-eabi/lib\libc_s.a(lib_a-malloc.o)
 .ARM.attributes
                0x00000120       0x30 c:/isis/application/toolchain/bin/../lib/gcc/arm-none-eabi/4.7.4/../../../../arm-none-eabi/lib\libc_s.a(lib_a-mallocr.o)
 .ARM.attributes
                0x00000150       0x30 c:/isis/application/toolchain/bin/../lib/gcc/arm-none-eabi/4.7.4/../../../../arm-none-eabi/lib\libc_s.a(lib_a-memcpy.o)
 .ARM.attributes
                0x00000180       0x30 c:/isis/application/toolchain/bin/../lib/gcc/arm-none-eabi/4.7.4/../../../../arm-none-eabi/lib\libc_s.a(lib_a-mprec.o)
 .ARM.attributes
                0x000001b0       0x30 c:/isis/application/toolchain/bin/../lib/gcc/arm-none-eabi/4.7.4/../../../../arm-none-eabi/lib\libc_s.a(lib_a-s_fpclassify.o)
 .ARM.attributes
                0x000001e0       0x30 c:/isis/application/toolchain/bin/../lib/gcc/arm-none-eabi/4.7.4/../../../../arm-none-eabi/lib\libc_s.a(lib_a-sbrkr.o)
 .ARM.attributes
                0x00000210       0x30 c:/isis/application/toolchain/bin/../lib/gcc/arm-none-eabi/4.7.4/../../../../arm-none-eabi/lib\libc_s.a(lib_a-sf_nan.o)
 .ARM.attributes
                0x00000240       0x30 c:/isis/application/toolchain/bin/../lib/gcc/arm-none-eabi/4.7.4/../../../../arm-none-eabi/lib\libc_s.a(lib_a-sprintf.o)
 .ARM.attributes
                0x00000270       0x30 c:/isis/application/toolchain/bin/../lib/gcc/arm-none-eabi/4.7.4/../../../../arm-none-eabi/lib\libc_s.a(lib_a-strlen.o)
 .ARM.attributes
                0x000002a0       0x30 c:/isis/application/toolchain/bin/../lib/gcc/arm-none-eabi/4.7.4/../../../../arm-none-eabi/lib\libc_s.a(lib_a-strtod.o)
 .ARM.attributes
                0x000002d0       0x30 c:/isis/application/toolchain/bin/../lib/gcc/arm-none-eabi/4.7.4/../../../../arm-none-eabi/lib\libc_s.a(lib_a-strtol.o)
 .ARM.attributes
                0x00000300       0x30 c:/isis/application/toolchain/bin/../lib/gcc/arm-none-eabi/4.7.4/../../../../arm-none-eabi/lib\libc_s.a(lib_a-svfprintf.o)
 .ARM.attributes
                0x00000330       0x30 c:/isis/application/toolchain/bin/../lib/gcc/arm-none-eabi/4.7.4/../../../../arm-none-eabi/lib\libc_s.a(lib_a-callocr.o)
 .ARM.attributes
                0x00000360       0x30 c:/isis/application/toolchain/bin/../lib/gcc/arm-none-eabi/4.7.4/../../../../arm-none-eabi/lib\libc_s.a(lib_a-ctype_.o)
 .ARM.attributes
                0x00000390       0x30 c:/isis/application/toolchain/bin/../lib/gcc/arm-none-eabi/4.7.4/../../../../arm-none-eabi/lib\libc_s.a(lib_a-freer.o)
 .ARM.attributes
                0x000003c0       0x30 c:/isis/application/toolchain/bin/../lib/gcc/arm-none-eabi/4.7.4/../../../../arm-none-eabi/lib\libc_s.a(lib_a-gdtoa-gethex.o)
 .ARM.attributes
                0x000003f0       0x30 c:/isis/application/toolchain/bin/../lib/gcc/arm-none-eabi/4.7.4/../../../../arm-none-eabi/lib\libc_s.a(lib_a-gdtoa-hexnan.o)
 .ARM.attributes
                0x00000420       0x30 c:/isis/application/toolchain/bin/../lib/gcc/arm-none-eabi/4.7.4/../../../../arm-none-eabi/lib\libc_s.a(lib_a-impure.o)
 .ARM.attributes
                0x00000450       0x30 c:/isis/application/toolchain/bin/../lib/gcc/arm-none-eabi/4.7.4/../../../../arm-none-eabi/lib\libc_s.a(lib_a-memchr.o)
 .ARM.attributes
                0x00000480       0x30 c:/isis/application/toolchain/bin/../lib/gcc/arm-none-eabi/4.7.4/../../../../arm-none-eabi/lib\libc_s.a(lib_a-memset.o)
 .ARM.attributes
                0x000004b0       0x30 c:/isis/application/toolchain/bin/../lib/gcc/arm-none-eabi/4.7.4/../../../../arm-none-eabi/lib\libc_s.a(lib_a-reallocr.o)
 .ARM.attributes
                0x000004e0       0x30 c:/isis/application/toolchain/bin/../lib/gcc/arm-none-eabi/4.7.4/../../../../arm-none-eabi/lib\libc_s.a(lib_a-reent.o)
 .ARM.attributes
                0x00000510       0x30 c:/isis/application/toolchain/bin/../lib/gcc/arm-none-eabi/4.7.4/../../../../arm-none-eabi/lib\libc_s.a(lib_a-strncmp.o)
 .ARM.attributes
                0x00000540       0x30 c:/isis/application/toolchain/bin/../lib/gcc/arm-none-eabi/4.7.4/../../../../arm-none-eabi/lib\libc_s.a(lib_a-msizer.o)
 .ARM.attributes
                0x00000570       0x32 ./src/Demos/GomEPSdemo.o
 .ARM.attributes
                0x000005a2       0x32 ./src/Demos/IsisAntSdemo.o
 .ARM.attributes
                0x000005d4       0x32 ./src/Demos/IsisEPSdemo.o
 .ARM.attributes
                0x00000606       0x32 ./src/Demos/IsisMTQv1demo.o
 .ARM.attributes
                0x00000638       0x32 ./src/Demos/IsisMTQv2demo.o
 .ARM.attributes
                0x0000066a       0x32 ./src/Demos/IsisSPdemo.o
 .ARM.attributes
                0x0000069c       0x32 ./src/Demos/IsisSPv2demo.o
 .ARM.attributes
                0x000006ce       0x32 ./src/Demos/IsisTRXUVdemo.o
 .ARM.attributes
                0x00000700       0x32 ./src/Demos/IsisTRXVUdemo.o
 .ARM.attributes
                0x00000732       0x32 ./src/Demos/IsisTxSdemo.o
 .ARM.attributes
                0x00000764       0x32 ./src/Demos/common.o
 .ARM.attributes
                0x00000796       0x32 ./src/main.o
 .ARM.attributes
                0x000007c8       0x32 D:/Internship 2018/OBC Projects/SecondProject/satellite-subsystems/demo/..//satellite-subsystems/lib\libSatelliteSubsystemsD.a(GomEPS.o)
 .ARM.attributes
                0x000007fa       0x32 D:/Internship 2018/OBC Projects/SecondProject/satellite-subsystems/demo/..//satellite-subsystems/lib\libSatelliteSubsystemsD.a(IsisAntS.o)
 .ARM.attributes
                0x0000082c       0x32 D:/Internship 2018/OBC Projects/SecondProject/satellite-subsystems/demo/..//satellite-subsystems/lib\libSatelliteSubsystemsD.a(IsisEPS.o)
 .ARM.attributes
                0x0000085e       0x32 D:/Internship 2018/OBC Projects/SecondProject/satellite-subsystems/demo/..//satellite-subsystems/lib\libSatelliteSubsystemsD.a(IsisMTQv1.o)
 .ARM.attributes
                0x00000890       0x32 D:/Internship 2018/OBC Projects/SecondProject/satellite-subsystems/demo/..//satellite-subsystems/lib\libSatelliteSubsystemsD.a(IsisMTQv2.o)
 .ARM.attributes
                0x000008c2       0x32 D:/Internship 2018/OBC Projects/SecondProject/satellite-subsystems/demo/..//satellite-subsystems/lib\libSatelliteSubsystemsD.a(IsisSolarPanel.o)
 .ARM.attributes
                0x000008f4       0x32 D:/Internship 2018/OBC Projects/SecondProject/satellite-subsystems/demo/..//satellite-subsystems/lib\libSatelliteSubsystemsD.a(IsisSolarPanelv2.o)
 .ARM.attributes
                0x00000926       0x32 D:/Internship 2018/OBC Projects/SecondProject/satellite-subsystems/demo/..//satellite-subsystems/lib\libSatelliteSubsystemsD.a(IsisTRXUV.o)
 .ARM.attributes
                0x00000958       0x32 D:/Internship 2018/OBC Projects/SecondProject/satellite-subsystems/demo/..//satellite-subsystems/lib\libSatelliteSubsystemsD.a(IsisTRXVU.o)
 .ARM.attributes
                0x0000098a       0x32 D:/Internship 2018/OBC Projects/SecondProject/satellite-subsystems/demo/..//satellite-subsystems/lib\libSatelliteSubsystemsD.a(IsisTxS.o)
 .ARM.attributes
                0x000009bc       0x32 D:/Internship 2018/OBC Projects/SecondProject/satellite-subsystems/demo/..//satellite-subsystems/lib\libSatelliteSubsystemsD.a(version.o)
 .ARM.attributes
                0x000009ee       0x32 D:/Internship 2018/OBC Projects/SecondProject/satellite-subsystems/demo/..//satellite-subsystems/lib\libSatelliteSubsystemsD.a(IsisTRXCommon.o)
 .ARM.attributes
                0x00000a20       0x30 c:/isis/application/toolchain/bin/../lib/gcc/arm-none-eabi/4.7.4/../../../../arm-none-eabi/lib\libm.a(lib_a-w_exp.o)
 .ARM.attributes
                0x00000a50       0x30 c:/isis/application/toolchain/bin/../lib/gcc/arm-none-eabi/4.7.4/../../../../arm-none-eabi/lib\libm.a(lib_a-e_exp.o)
 .ARM.attributes
                0x00000a80       0x30 c:/isis/application/toolchain/bin/../lib/gcc/arm-none-eabi/4.7.4/../../../../arm-none-eabi/lib\libm.a(lib_a-s_finite.o)
 .ARM.attributes
                0x00000ab0       0x30 c:/isis/application/toolchain/bin/../lib/gcc/arm-none-eabi/4.7.4/../../../../arm-none-eabi/lib\libm.a(lib_a-s_lib_ver.o)
 .ARM.attributes
                0x00000ae0       0x30 c:/isis/application/toolchain/bin/../lib/gcc/arm-none-eabi/4.7.4/../../../../arm-none-eabi/lib\libm.a(lib_a-s_matherr.o)
 .ARM.attributes
                0x00000b10       0x32 D:/Internship 2018/OBC Projects/SecondProject/satellite-subsystems/demo/../..//hal/hal/lib\libHALD.a(I2C.o)
 .ARM.attributes
                0x00000b42       0x32 D:/Internship 2018/OBC Projects/SecondProject/satellite-subsystems/demo/../..//hal/hal/lib\libHALD.a(LED.o)
 .ARM.attributes
                0x00000b74       0x32 D:/Internship 2018/OBC Projects/SecondProject/satellite-subsystems/demo/../..//hal/hal/lib\libHALD.a(SPI.o)
 .ARM.attributes
                0x00000ba6       0x32 D:/Internship 2018/OBC Projects/SecondProject/satellite-subsystems/demo/../..//hal/hal/lib\libHALD.a(WatchDogTimerNoOS.o)
 .ARM.attributes
                0x00000bd8       0x32 D:/Internship 2018/OBC Projects/SecondProject/satellite-subsystems/demo/../..//hal/hal/lib\libHALD.a(WatchDogTimerOS.o)
 .ARM.attributes
                0x00000c0a       0x32 D:/Internship 2018/OBC Projects/SecondProject/satellite-subsystems/demo/../..//hal/hal/lib\libHALD.a(util.o)
 .ARM.attributes
                0x00000c3c       0x32 D:/Internship 2018/OBC Projects/SecondProject/satellite-subsystems/demo/../..//hal/hal/lib\libHALD.a(version.o)
 .ARM.attributes
                0x00000c6e       0x32 D:/Internship 2018/OBC Projects/SecondProject/satellite-subsystems/demo/../..//hal/freertos/lib\libFreeRTOSD.a(queue.o)
 .ARM.attributes
                0x00000ca0       0x32 D:/Internship 2018/OBC Projects/SecondProject/satellite-subsystems/demo/../..//hal/freertos/lib\libFreeRTOSD.a(tasks.o)
 .ARM.attributes
                0x00000cd2       0x32 D:/Internship 2018/OBC Projects/SecondProject/satellite-subsystems/demo/../..//hal/freertos/lib\libFreeRTOSD.a(hooks.o)
 .ARM.attributes
                0x00000d04       0x32 D:/Internship 2018/OBC Projects/SecondProject/satellite-subsystems/demo/../..//hal/freertos/lib\libFreeRTOSD.a(standardMemMang.o)
 .ARM.attributes
                0x00000d36       0x32 D:/Internship 2018/OBC Projects/SecondProject/satellite-subsystems/demo/../..//hal/freertos/lib\libFreeRTOSD.a(port.o)
 .ARM.attributes
                0x00000d68       0x32 D:/Internship 2018/OBC Projects/SecondProject/satellite-subsystems/demo/../..//hal/freertos/lib\libFreeRTOSD.a(list.o)
 .ARM.attributes
                0x00000d9a       0x32 D:/Internship 2018/OBC Projects/SecondProject/satellite-subsystems/demo/../..//hal/at91/lib\libAt91D.a(syscalls.o)
 .ARM.attributes
                0x00000dcc       0x32 D:/Internship 2018/OBC Projects/SecondProject/satellite-subsystems/demo/../..//hal/at91/lib\libAt91D.a(aic.o)
 .ARM.attributes
                0x00000dfe       0x32 D:/Internship 2018/OBC Projects/SecondProject/satellite-subsystems/demo/../..//hal/at91/lib\libAt91D.a(cp15.o)
 .ARM.attributes
                0x00000e30       0x32 D:/Internship 2018/OBC Projects/SecondProject/satellite-subsystems/demo/../..//hal/at91/lib\libAt91D.a(dbgu.o)
 .ARM.attributes
                0x00000e62       0x32 D:/Internship 2018/OBC Projects/SecondProject/satellite-subsystems/demo/../..//hal/at91/lib\libAt91D.a(pio.o)
 .ARM.attributes
                0x00000e94       0x32 D:/Internship 2018/OBC Projects/SecondProject/satellite-subsystems/demo/../..//hal/at91/lib\libAt91D.a(pit.o)
 .ARM.attributes
                0x00000ec6       0x32 D:/Internship 2018/OBC Projects/SecondProject/satellite-subsystems/demo/../..//hal/at91/lib\libAt91D.a(pmc.o)
 .ARM.attributes
                0x00000ef8       0x32 D:/Internship 2018/OBC Projects/SecondProject/satellite-subsystems/demo/../..//hal/at91/lib\libAt91D.a(spi_at91.o)
 .ARM.attributes
                0x00000f2a       0x32 D:/Internship 2018/OBC Projects/SecondProject/satellite-subsystems/demo/../..//hal/at91/lib\libAt91D.a(twi_at91.o)
 .ARM.attributes
                0x00000f5c       0x32 D:/Internship 2018/OBC Projects/SecondProject/satellite-subsystems/demo/../..//hal/at91/lib\libAt91D.a(ExitHandler.o)
 .ARM.attributes
                0x00000f8e       0x22 D:/Internship 2018/OBC Projects/SecondProject/satellite-subsystems/demo/../..//hal/at91/lib\libAt91D.a(board_cstartup.o)
 .ARM.attributes
                0x00000fb0       0x22 D:/Internship 2018/OBC Projects/SecondProject/satellite-subsystems/demo/../..//hal/at91/lib\libAt91D.a(cp15_asm.o)
 .ARM.attributes
                0x00000fd2       0x32 D:/Internship 2018/OBC Projects/SecondProject/satellite-subsystems/demo/../..//hal/at91/lib\libAt91D.a(board_lowlevel.o)
 .ARM.attributes
                0x00001004       0x32 D:/Internship 2018/OBC Projects/SecondProject/satellite-subsystems/demo/../..//hal/at91/lib\libAt91D.a(board_memories.o)
 .ARM.attributes
                0x00001036       0x18 c:/isis/application/toolchain/bin/../lib/gcc/arm-none-eabi/4.7.4\libgcc.a(_udivsi3.o)
 .ARM.attributes
                0x0000104e       0x18 c:/isis/application/toolchain/bin/../lib/gcc/arm-none-eabi/4.7.4\libgcc.a(_divsi3.o)
 .ARM.attributes
                0x00001066       0x18 c:/isis/application/toolchain/bin/../lib/gcc/arm-none-eabi/4.7.4\libgcc.a(_dvmd_tls.o)
 .ARM.attributes
                0x0000107e       0x18 c:/isis/application/toolchain/bin/../lib/gcc/arm-none-eabi/4.7.4\libgcc.a(_arm_addsubdf3.o)
 .ARM.attributes
                0x00001096       0x18 c:/isis/application/toolchain/bin/../lib/gcc/arm-none-eabi/4.7.4\libgcc.a(_arm_muldivdf3.o)
 .ARM.attributes
                0x000010ae       0x18 c:/isis/application/toolchain/bin/../lib/gcc/arm-none-eabi/4.7.4\libgcc.a(_arm_cmpdf2.o)
 .ARM.attributes
                0x000010c6       0x18 c:/isis/application/toolchain/bin/../lib/gcc/arm-none-eabi/4.7.4\libgcc.a(_arm_fixdfsi.o)
 .ARM.attributes
                0x000010de       0x18 c:/isis/application/toolchain/bin/../lib/gcc/arm-none-eabi/4.7.4\libgcc.a(_arm_fixunsdfsi.o)
 .ARM.attributes
                0x000010f6       0x18 c:/isis/application/toolchain/bin/../lib/gcc/arm-none-eabi/4.7.4\libgcc.a(_arm_truncdfsf2.o)
 .ARM.attributes
                0x0000110e       0x18 c:/isis/application/toolchain/bin/../lib/gcc/arm-none-eabi/4.7.4\libgcc.a(_arm_addsubsf3.o)
 .ARM.attributes
                0x00001126       0x18 c:/isis/application/toolchain/bin/../lib/gcc/arm-none-eabi/4.7.4\libgcc.a(_arm_muldivsf3.o)
 .ARM.attributes
                0x0000113e       0x30 c:/isis/application/toolchain/bin/../lib/gcc/arm-none-eabi/4.7.4/../../../../arm-none-eabi/lib\libc_s.a(lib_a-errno.o)
 .ARM.attributes
                0x0000116e       0x30 c:/isis/application/toolchain/bin/../lib/gcc/arm-none-eabi/4.7.4/../../../../arm-none-eabi/lib\libc_s.a(lib_a-printf.o)
 .ARM.attributes
                0x0000119e       0x30 c:/isis/application/toolchain/bin/../lib/gcc/arm-none-eabi/4.7.4/../../../../arm-none-eabi/lib\libc_s.a(lib_a-puts.o)
 .ARM.attributes
                0x000011ce       0x30 c:/isis/application/toolchain/bin/../lib/gcc/arm-none-eabi/4.7.4/../../../../arm-none-eabi/lib\libc_s.a(lib_a-snprintf.o)
 .ARM.attributes
                0x000011fe       0x30 c:/isis/application/toolchain/bin/../lib/gcc/arm-none-eabi/4.7.4/../../../../arm-none-eabi/lib\libc_s.a(lib_a-vfprintf.o)
 .ARM.attributes
                0x0000122e       0x30 c:/isis/application/toolchain/bin/../lib/gcc/arm-none-eabi/4.7.4/../../../../arm-none-eabi/lib\libc_s.a(lib_a-wbuf.o)
 .ARM.attributes
                0x0000125e       0x30 c:/isis/application/toolchain/bin/../lib/gcc/arm-none-eabi/4.7.4/../../../../arm-none-eabi/lib\libc_s.a(lib_a-wsetup.o)
 .ARM.attributes
                0x0000128e       0x30 c:/isis/application/toolchain/bin/../lib/gcc/arm-none-eabi/4.7.4/../../../../arm-none-eabi/lib\libc_s.a(lib_a-fflush.o)
 .ARM.attributes
                0x000012be       0x30 c:/isis/application/toolchain/bin/../lib/gcc/arm-none-eabi/4.7.4/../../../../arm-none-eabi/lib\libc_s.a(lib_a-findfp.o)
 .ARM.attributes
                0x000012ee       0x30 c:/isis/application/toolchain/bin/../lib/gcc/arm-none-eabi/4.7.4/../../../../arm-none-eabi/lib\libc_s.a(lib_a-makebuf.o)
 .ARM.attributes
                0x0000131e       0x30 c:/isis/application/toolchain/bin/../lib/gcc/arm-none-eabi/4.7.4/../../../../arm-none-eabi/lib\libc_s.a(lib_a-putc.o)
 .ARM.attributes
                0x0000134e       0x30 c:/isis/application/toolchain/bin/../lib/gcc/arm-none-eabi/4.7.4/../../../../arm-none-eabi/lib\libc_s.a(lib_a-stdio.o)
 .ARM.attributes
                0x0000137e       0x30 c:/isis/application/toolchain/bin/../lib/gcc/arm-none-eabi/4.7.4/../../../../arm-none-eabi/lib\libc_s.a(lib_a-writer.o)
 .ARM.attributes
                0x000013ae       0x30 c:/isis/application/toolchain/bin/../lib/gcc/arm-none-eabi/4.7.4/../../../../arm-none-eabi/lib\libc_s.a(lib_a-closer.o)
 .ARM.attributes
                0x000013de       0x30 c:/isis/application/toolchain/bin/../lib/gcc/arm-none-eabi/4.7.4/../../../../arm-none-eabi/lib\libc_s.a(lib_a-fstatr.o)
 .ARM.attributes
                0x0000140e       0x30 c:/isis/application/toolchain/bin/../lib/gcc/arm-none-eabi/4.7.4/../../../../arm-none-eabi/lib\libc_s.a(lib_a-isattyr.o)
 .ARM.attributes
                0x0000143e       0x30 c:/isis/application/toolchain/bin/../lib/gcc/arm-none-eabi/4.7.4/../../../../arm-none-eabi/lib\libc_s.a(lib_a-lseekr.o)
 .ARM.attributes
                0x0000146e       0x30 c:/isis/application/toolchain/bin/../lib/gcc/arm-none-eabi/4.7.4/../../../../arm-none-eabi/lib\libc_s.a(lib_a-readr.o)

.comment        0x00000000       0x70
 .comment       0x00000000       0x70 ./src/Demos/GomEPSdemo.o
                                 0x71 (size before relaxing)
 .comment       0x00000000       0x71 ./src/Demos/IsisAntSdemo.o
 .comment       0x00000000       0x71 ./src/Demos/IsisEPSdemo.o
 .comment       0x00000000       0x71 ./src/Demos/IsisMTQv1demo.o
 .comment       0x00000000       0x71 ./src/Demos/IsisMTQv2demo.o
 .comment       0x00000000       0x71 ./src/Demos/IsisSPdemo.o
 .comment       0x00000000       0x71 ./src/Demos/IsisSPv2demo.o
 .comment       0x00000000       0x71 ./src/Demos/IsisTRXUVdemo.o
 .comment       0x00000000       0x71 ./src/Demos/IsisTRXVUdemo.o
 .comment       0x00000000       0x71 ./src/Demos/IsisTxSdemo.o
 .comment       0x00000000       0x71 ./src/Demos/common.o
 .comment       0x00000000       0x71 ./src/main.o
 .comment       0x00000000       0x71 D:/Internship 2018/OBC Projects/SecondProject/satellite-subsystems/demo/..//satellite-subsystems/lib\libSatelliteSubsystemsD.a(GomEPS.o)
 .comment       0x00000000       0x71 D:/Internship 2018/OBC Projects/SecondProject/satellite-subsystems/demo/..//satellite-subsystems/lib\libSatelliteSubsystemsD.a(IsisAntS.o)
 .comment       0x00000000       0x71 D:/Internship 2018/OBC Projects/SecondProject/satellite-subsystems/demo/..//satellite-subsystems/lib\libSatelliteSubsystemsD.a(IsisEPS.o)
 .comment       0x00000000       0x71 D:/Internship 2018/OBC Projects/SecondProject/satellite-subsystems/demo/..//satellite-subsystems/lib\libSatelliteSubsystemsD.a(IsisMTQv1.o)
 .comment       0x00000000       0x71 D:/Internship 2018/OBC Projects/SecondProject/satellite-subsystems/demo/..//satellite-subsystems/lib\libSatelliteSubsystemsD.a(IsisMTQv2.o)
 .comment       0x00000000       0x71 D:/Internship 2018/OBC Projects/SecondProject/satellite-subsystems/demo/..//satellite-subsystems/lib\libSatelliteSubsystemsD.a(IsisSolarPanel.o)
 .comment       0x00000000       0x71 D:/Internship 2018/OBC Projects/SecondProject/satellite-subsystems/demo/..//satellite-subsystems/lib\libSatelliteSubsystemsD.a(IsisSolarPanelv2.o)
 .comment       0x00000000       0x71 D:/Internship 2018/OBC Projects/SecondProject/satellite-subsystems/demo/..//satellite-subsystems/lib\libSatelliteSubsystemsD.a(IsisTRXUV.o)
 .comment       0x00000000       0x71 D:/Internship 2018/OBC Projects/SecondProject/satellite-subsystems/demo/..//satellite-subsystems/lib\libSatelliteSubsystemsD.a(IsisTRXVU.o)
 .comment       0x00000000       0x71 D:/Internship 2018/OBC Projects/SecondProject/satellite-subsystems/demo/..//satellite-subsystems/lib\libSatelliteSubsystemsD.a(IsisTxS.o)
 .comment       0x00000000       0x71 D:/Internship 2018/OBC Projects/SecondProject/satellite-subsystems/demo/..//satellite-subsystems/lib\libSatelliteSubsystemsD.a(version.o)
 .comment       0x00000000       0x71 D:/Internship 2018/OBC Projects/SecondProject/satellite-subsystems/demo/..//satellite-subsystems/lib\libSatelliteSubsystemsD.a(IsisTRXCommon.o)
 .comment       0x00000000       0x71 D:/Internship 2018/OBC Projects/SecondProject/satellite-subsystems/demo/../..//hal/hal/lib\libHALD.a(I2C.o)
 .comment       0x00000000       0x71 D:/Internship 2018/OBC Projects/SecondProject/satellite-subsystems/demo/../..//hal/hal/lib\libHALD.a(LED.o)
 .comment       0x00000000       0x71 D:/Internship 2018/OBC Projects/SecondProject/satellite-subsystems/demo/../..//hal/hal/lib\libHALD.a(SPI.o)
 .comment       0x00000000       0x71 D:/Internship 2018/OBC Projects/SecondProject/satellite-subsystems/demo/../..//hal/hal/lib\libHALD.a(WatchDogTimerNoOS.o)
 .comment       0x00000000       0x71 D:/Internship 2018/OBC Projects/SecondProject/satellite-subsystems/demo/../..//hal/hal/lib\libHALD.a(WatchDogTimerOS.o)
 .comment       0x00000000       0x71 D:/Internship 2018/OBC Projects/SecondProject/satellite-subsystems/demo/../..//hal/hal/lib\libHALD.a(util.o)
 .comment       0x00000000       0x71 D:/Internship 2018/OBC Projects/SecondProject/satellite-subsystems/demo/../..//hal/hal/lib\libHALD.a(version.o)
 .comment       0x00000000       0x71 D:/Internship 2018/OBC Projects/SecondProject/satellite-subsystems/demo/../..//hal/freertos/lib\libFreeRTOSD.a(queue.o)
 .comment       0x00000000       0x71 D:/Internship 2018/OBC Projects/SecondProject/satellite-subsystems/demo/../..//hal/freertos/lib\libFreeRTOSD.a(tasks.o)
 .comment       0x00000000       0x71 D:/Internship 2018/OBC Projects/SecondProject/satellite-subsystems/demo/../..//hal/freertos/lib\libFreeRTOSD.a(hooks.o)
 .comment       0x00000000       0x71 D:/Internship 2018/OBC Projects/SecondProject/satellite-subsystems/demo/../..//hal/freertos/lib\libFreeRTOSD.a(standardMemMang.o)
 .comment       0x00000000       0x71 D:/Internship 2018/OBC Projects/SecondProject/satellite-subsystems/demo/../..//hal/freertos/lib\libFreeRTOSD.a(port.o)
 .comment       0x00000000       0x71 D:/Internship 2018/OBC Projects/SecondProject/satellite-subsystems/demo/../..//hal/freertos/lib\libFreeRTOSD.a(list.o)
 .comment       0x00000000       0x71 D:/Internship 2018/OBC Projects/SecondProject/satellite-subsystems/demo/../..//hal/at91/lib\libAt91D.a(syscalls.o)
 .comment       0x00000000       0x71 D:/Internship 2018/OBC Projects/SecondProject/satellite-subsystems/demo/../..//hal/at91/lib\libAt91D.a(aic.o)
 .comment       0x00000000       0x71 D:/Internship 2018/OBC Projects/SecondProject/satellite-subsystems/demo/../..//hal/at91/lib\libAt91D.a(cp15.o)
 .comment       0x00000000       0x71 D:/Internship 2018/OBC Projects/SecondProject/satellite-subsystems/demo/../..//hal/at91/lib\libAt91D.a(dbgu.o)
 .comment       0x00000000       0x71 D:/Internship 2018/OBC Projects/SecondProject/satellite-subsystems/demo/../..//hal/at91/lib\libAt91D.a(pio.o)
 .comment       0x00000000       0x71 D:/Internship 2018/OBC Projects/SecondProject/satellite-subsystems/demo/../..//hal/at91/lib\libAt91D.a(pit.o)
 .comment       0x00000000       0x71 D:/Internship 2018/OBC Projects/SecondProject/satellite-subsystems/demo/../..//hal/at91/lib\libAt91D.a(pmc.o)
 .comment       0x00000000       0x71 D:/Internship 2018/OBC Projects/SecondProject/satellite-subsystems/demo/../..//hal/at91/lib\libAt91D.a(spi_at91.o)
 .comment       0x00000000       0x71 D:/Internship 2018/OBC Projects/SecondProject/satellite-subsystems/demo/../..//hal/at91/lib\libAt91D.a(twi_at91.o)
 .comment       0x00000000       0x71 D:/Internship 2018/OBC Projects/SecondProject/satellite-subsystems/demo/../..//hal/at91/lib\libAt91D.a(ExitHandler.o)
 .comment       0x00000000       0x71 D:/Internship 2018/OBC Projects/SecondProject/satellite-subsystems/demo/../..//hal/at91/lib\libAt91D.a(board_lowlevel.o)
 .comment       0x00000000       0x71 D:/Internship 2018/OBC Projects/SecondProject/satellite-subsystems/demo/../..//hal/at91/lib\libAt91D.a(board_memories.o)

.debug_frame    0x00000000     0x51c0
 .debug_frame   0x00000000       0x80 c:/isis/application/toolchain/bin/../lib/gcc/arm-none-eabi/4.7.4/../../../../arm-none-eabi/lib\libc_s.a(lib_a-vfprintf_float.o)
 .debug_frame   0x00000080       0x5c c:/isis/application/toolchain/bin/../lib/gcc/arm-none-eabi/4.7.4/../../../../arm-none-eabi/lib\libc_s.a(lib_a-vfprintf_i.o)
 .debug_frame   0x000000dc       0x38 c:/isis/application/toolchain/bin/../lib/gcc/arm-none-eabi/4.7.4/../../../../arm-none-eabi/lib\libc_s.a(lib_a-vfscanf_float.o)
 .debug_frame   0x00000114       0x64 c:/isis/application/toolchain/bin/../lib/gcc/arm-none-eabi/4.7.4/../../../../arm-none-eabi/lib\libc_s.a(lib_a-dtoa.o)
 .debug_frame   0x00000178       0x98 c:/isis/application/toolchain/bin/../lib/gcc/arm-none-eabi/4.7.4/../../../../arm-none-eabi/lib\libc_s.a(lib_a-locale.o)
 .debug_frame   0x00000210       0x40 c:/isis/application/toolchain/bin/../lib/gcc/arm-none-eabi/4.7.4/../../../../arm-none-eabi/lib\libc_s.a(lib_a-malloc.o)
 .debug_frame   0x00000250       0x2c c:/isis/application/toolchain/bin/../lib/gcc/arm-none-eabi/4.7.4/../../../../arm-none-eabi/lib\libc_s.a(lib_a-mallocr.o)
 .debug_frame   0x0000027c       0x20 c:/isis/application/toolchain/bin/../lib/gcc/arm-none-eabi/4.7.4/../../../../arm-none-eabi/lib\libc_s.a(lib_a-memcpy.o)
 .debug_frame   0x0000029c      0x22c c:/isis/application/toolchain/bin/../lib/gcc/arm-none-eabi/4.7.4/../../../../arm-none-eabi/lib\libc_s.a(lib_a-mprec.o)
 .debug_frame   0x000004c8       0x20 c:/isis/application/toolchain/bin/../lib/gcc/arm-none-eabi/4.7.4/../../../../arm-none-eabi/lib\libc_s.a(lib_a-s_fpclassify.o)
 .debug_frame   0x000004e8       0x2c c:/isis/application/toolchain/bin/../lib/gcc/arm-none-eabi/4.7.4/../../../../arm-none-eabi/lib\libc_s.a(lib_a-sbrkr.o)
 .debug_frame   0x00000514       0x20 c:/isis/application/toolchain/bin/../lib/gcc/arm-none-eabi/4.7.4/../../../../arm-none-eabi/lib\libc_s.a(lib_a-sf_nan.o)
 .debug_frame   0x00000534       0x54 c:/isis/application/toolchain/bin/../lib/gcc/arm-none-eabi/4.7.4/../../../../arm-none-eabi/lib\libc_s.a(lib_a-sprintf.o)
 .debug_frame   0x00000588       0x20 c:/isis/application/toolchain/bin/../lib/gcc/arm-none-eabi/4.7.4/../../../../arm-none-eabi/lib\libc_s.a(lib_a-strlen.o)
 .debug_frame   0x000005a8       0x80 c:/isis/application/toolchain/bin/../lib/gcc/arm-none-eabi/4.7.4/../../../../arm-none-eabi/lib\libc_s.a(lib_a-strtod.o)
 .debug_frame   0x00000628       0x54 c:/isis/application/toolchain/bin/../lib/gcc/arm-none-eabi/4.7.4/../../../../arm-none-eabi/lib\libc_s.a(lib_a-strtol.o)
 .debug_frame   0x0000067c       0x88 c:/isis/application/toolchain/bin/../lib/gcc/arm-none-eabi/4.7.4/../../../../arm-none-eabi/lib\libc_s.a(lib_a-svfprintf.o)
 .debug_frame   0x00000704       0x2c c:/isis/application/toolchain/bin/../lib/gcc/arm-none-eabi/4.7.4/../../../../arm-none-eabi/lib\libc_s.a(lib_a-callocr.o)
 .debug_frame   0x00000730       0x28 c:/isis/application/toolchain/bin/../lib/gcc/arm-none-eabi/4.7.4/../../../../arm-none-eabi/lib\libc_s.a(lib_a-freer.o)
 .debug_frame   0x00000758       0x84 c:/isis/application/toolchain/bin/../lib/gcc/arm-none-eabi/4.7.4/../../../../arm-none-eabi/lib\libc_s.a(lib_a-gdtoa-gethex.o)
 .debug_frame   0x000007dc       0x54 c:/isis/application/toolchain/bin/../lib/gcc/arm-none-eabi/4.7.4/../../../../arm-none-eabi/lib\libc_s.a(lib_a-gdtoa-hexnan.o)
 .debug_frame   0x00000830       0x20 c:/isis/application/toolchain/bin/../lib/gcc/arm-none-eabi/4.7.4/../../../../arm-none-eabi/lib\libc_s.a(lib_a-memchr.o)
 .debug_frame   0x00000850       0x20 c:/isis/application/toolchain/bin/../lib/gcc/arm-none-eabi/4.7.4/../../../../arm-none-eabi/lib\libc_s.a(lib_a-memset.o)
 .debug_frame   0x00000870       0x30 c:/isis/application/toolchain/bin/../lib/gcc/arm-none-eabi/4.7.4/../../../../arm-none-eabi/lib\libc_s.a(lib_a-reallocr.o)
 .debug_frame   0x000008a0       0x64 c:/isis/application/toolchain/bin/../lib/gcc/arm-none-eabi/4.7.4/../../../../arm-none-eabi/lib\libc_s.a(lib_a-reent.o)
 .debug_frame   0x00000904       0x28 c:/isis/application/toolchain/bin/../lib/gcc/arm-none-eabi/4.7.4/../../../../arm-none-eabi/lib\libc_s.a(lib_a-strncmp.o)
 .debug_frame   0x0000092c       0x20 c:/isis/application/toolchain/bin/../lib/gcc/arm-none-eabi/4.7.4/../../../../arm-none-eabi/lib\libc_s.a(lib_a-msizer.o)
 .debug_frame   0x0000094c      0x128 ./src/Demos/GomEPSdemo.o
 .debug_frame   0x00000a74      0x144 ./src/Demos/IsisAntSdemo.o
 .debug_frame   0x00000bb8      0x454 ./src/Demos/IsisEPSdemo.o
 .debug_frame   0x0000100c       0x9c ./src/Demos/IsisMTQv1demo.o
 .debug_frame   0x000010a8      0x358 ./src/Demos/IsisMTQv2demo.o
 .debug_frame   0x00001400       0x64 ./src/Demos/IsisSPdemo.o
 .debug_frame   0x00001464       0x80 ./src/Demos/IsisSPv2demo.o
 .debug_frame   0x000014e4      0x180 ./src/Demos/IsisTRXUVdemo.o
 .debug_frame   0x00001664      0x198 ./src/Demos/IsisTRXVUdemo.o
 .debug_frame   0x000017fc      0x160 ./src/Demos/IsisTxSdemo.o
 .debug_frame   0x0000195c       0xc0 ./src/Demos/common.o
 .debug_frame   0x00001a1c       0x64 ./src/main.o
 .debug_frame   0x00001a80      0x2b4 D:/Internship 2018/OBC Projects/SecondProject/satellite-subsystems/demo/..//satellite-subsystems/lib\libSatelliteSubsystemsD.a(GomEPS.o)
 .debug_frame   0x00001d34      0x198 D:/Internship 2018/OBC Projects/SecondProject/satellite-subsystems/demo/..//satellite-subsystems/lib\libSatelliteSubsystemsD.a(IsisAntS.o)
 .debug_frame   0x00001ecc      0x3b0 D:/Internship 2018/OBC Projects/SecondProject/satellite-subsystems/demo/..//satellite-subsystems/lib\libSatelliteSubsystemsD.a(IsisEPS.o)
 .debug_frame   0x0000227c       0x84 D:/Internship 2018/OBC Projects/SecondProject/satellite-subsystems/demo/..//satellite-subsystems/lib\libSatelliteSubsystemsD.a(IsisMTQv1.o)
 .debug_frame   0x00002300      0x2e8 D:/Internship 2018/OBC Projects/SecondProject/satellite-subsystems/demo/..//satellite-subsystems/lib\libSatelliteSubsystemsD.a(IsisMTQv2.o)
 .debug_frame   0x000025e8       0x2c D:/Internship 2018/OBC Projects/SecondProject/satellite-subsystems/demo/..//satellite-subsystems/lib\libSatelliteSubsystemsD.a(IsisSolarPanel.o)
 .debug_frame   0x00002614      0x1c4 D:/Internship 2018/OBC Projects/SecondProject/satellite-subsystems/demo/..//satellite-subsystems/lib\libSatelliteSubsystemsD.a(IsisSolarPanelv2.o)
 .debug_frame   0x000027d8      0x2f0 D:/Internship 2018/OBC Projects/SecondProject/satellite-subsystems/demo/..//satellite-subsystems/lib\libSatelliteSubsystemsD.a(IsisTRXUV.o)
 .debug_frame   0x00002ac8      0x2b8 D:/Internship 2018/OBC Projects/SecondProject/satellite-subsystems/demo/..//satellite-subsystems/lib\libSatelliteSubsystemsD.a(IsisTRXVU.o)
 .debug_frame   0x00002d80      0x1b8 D:/Internship 2018/OBC Projects/SecondProject/satellite-subsystems/demo/..//satellite-subsystems/lib\libSatelliteSubsystemsD.a(IsisTxS.o)
 .debug_frame   0x00002f38      0x198 D:/Internship 2018/OBC Projects/SecondProject/satellite-subsystems/demo/..//satellite-subsystems/lib\libSatelliteSubsystemsD.a(IsisTRXCommon.o)
 .debug_frame   0x000030d0       0x34 c:/isis/application/toolchain/bin/../lib/gcc/arm-none-eabi/4.7.4/../../../../arm-none-eabi/lib\libm.a(lib_a-w_exp.o)
 .debug_frame   0x00003104       0x38 c:/isis/application/toolchain/bin/../lib/gcc/arm-none-eabi/4.7.4/../../../../arm-none-eabi/lib\libm.a(lib_a-e_exp.o)
 .debug_frame   0x0000313c       0x20 c:/isis/application/toolchain/bin/../lib/gcc/arm-none-eabi/4.7.4/../../../../arm-none-eabi/lib\libm.a(lib_a-s_finite.o)
 .debug_frame   0x0000315c       0x20 c:/isis/application/toolchain/bin/../lib/gcc/arm-none-eabi/4.7.4/../../../../arm-none-eabi/lib\libm.a(lib_a-s_matherr.o)
 .debug_frame   0x0000317c      0x264 D:/Internship 2018/OBC Projects/SecondProject/satellite-subsystems/demo/../..//hal/hal/lib\libHALD.a(I2C.o)
 .debug_frame   0x000033e0       0xd0 D:/Internship 2018/OBC Projects/SecondProject/satellite-subsystems/demo/../..//hal/hal/lib\libHALD.a(LED.o)
 .debug_frame   0x000034b0      0x160 D:/Internship 2018/OBC Projects/SecondProject/satellite-subsystems/demo/../..//hal/hal/lib\libHALD.a(SPI.o)
 .debug_frame   0x00003610       0x64 D:/Internship 2018/OBC Projects/SecondProject/satellite-subsystems/demo/../..//hal/hal/lib\libHALD.a(WatchDogTimerNoOS.o)
 .debug_frame   0x00003674       0x80 D:/Internship 2018/OBC Projects/SecondProject/satellite-subsystems/demo/../..//hal/hal/lib\libHALD.a(WatchDogTimerOS.o)
 .debug_frame   0x000036f4       0xd8 D:/Internship 2018/OBC Projects/SecondProject/satellite-subsystems/demo/../..//hal/hal/lib\libHALD.a(util.o)
 .debug_frame   0x000037cc      0x2b0 D:/Internship 2018/OBC Projects/SecondProject/satellite-subsystems/demo/../..//hal/freertos/lib\libFreeRTOSD.a(queue.o)
 .debug_frame   0x00003a7c      0x404 D:/Internship 2018/OBC Projects/SecondProject/satellite-subsystems/demo/../..//hal/freertos/lib\libFreeRTOSD.a(tasks.o)
 .debug_frame   0x00003e80       0x44 D:/Internship 2018/OBC Projects/SecondProject/satellite-subsystems/demo/../..//hal/freertos/lib\libFreeRTOSD.a(hooks.o)
 .debug_frame   0x00003ec4       0x78 D:/Internship 2018/OBC Projects/SecondProject/satellite-subsystems/demo/../..//hal/freertos/lib\libFreeRTOSD.a(standardMemMang.o)
 .debug_frame   0x00003f3c      0x10c D:/Internship 2018/OBC Projects/SecondProject/satellite-subsystems/demo/../..//hal/freertos/lib\libFreeRTOSD.a(port.o)
 .debug_frame   0x00004048       0x88 D:/Internship 2018/OBC Projects/SecondProject/satellite-subsystems/demo/../..//hal/freertos/lib\libFreeRTOSD.a(list.o)
 .debug_frame   0x000040d0      0x1e0 D:/Internship 2018/OBC Projects/SecondProject/satellite-subsystems/demo/../..//hal/at91/lib\libAt91D.a(syscalls.o)
 .debug_frame   0x000042b0       0x58 D:/Internship 2018/OBC Projects/SecondProject/satellite-subsystems/demo/../..//hal/at91/lib\libAt91D.a(aic.o)
 .debug_frame   0x00004308      0x10c D:/Internship 2018/OBC Projects/SecondProject/satellite-subsystems/demo/../..//hal/at91/lib\libAt91D.a(cp15.o)
 .debug_frame   0x00004414       0xcc D:/Internship 2018/OBC Projects/SecondProject/satellite-subsystems/demo/../..//hal/at91/lib\libAt91D.a(dbgu.o)
 .debug_frame   0x000044e0      0x104 D:/Internship 2018/OBC Projects/SecondProject/satellite-subsystems/demo/../..//hal/at91/lib\libAt91D.a(pio.o)
 .debug_frame   0x000045e4       0xe8 D:/Internship 2018/OBC Projects/SecondProject/satellite-subsystems/demo/../..//hal/at91/lib\libAt91D.a(pit.o)
 .debug_frame   0x000046cc       0xe4 D:/Internship 2018/OBC Projects/SecondProject/satellite-subsystems/demo/../..//hal/at91/lib\libAt91D.a(pmc.o)
 .debug_frame   0x000047b0       0xe8 D:/Internship 2018/OBC Projects/SecondProject/satellite-subsystems/demo/../..//hal/at91/lib\libAt91D.a(spi_at91.o)
 .debug_frame   0x00004898      0x1a8 D:/Internship 2018/OBC Projects/SecondProject/satellite-subsystems/demo/../..//hal/at91/lib\libAt91D.a(twi_at91.o)
 .debug_frame   0x00004a40       0x9c D:/Internship 2018/OBC Projects/SecondProject/satellite-subsystems/demo/../..//hal/at91/lib\libAt91D.a(ExitHandler.o)
 .debug_frame   0x00004adc       0x98 D:/Internship 2018/OBC Projects/SecondProject/satellite-subsystems/demo/../..//hal/at91/lib\libAt91D.a(board_lowlevel.o)
 .debug_frame   0x00004b74       0x74 D:/Internship 2018/OBC Projects/SecondProject/satellite-subsystems/demo/../..//hal/at91/lib\libAt91D.a(board_memories.o)
 .debug_frame   0x00004be8       0x20 c:/isis/application/toolchain/bin/../lib/gcc/arm-none-eabi/4.7.4\libgcc.a(_udivsi3.o)
 .debug_frame   0x00004c08       0x20 c:/isis/application/toolchain/bin/../lib/gcc/arm-none-eabi/4.7.4\libgcc.a(_divsi3.o)
 .debug_frame   0x00004c28       0x20 c:/isis/application/toolchain/bin/../lib/gcc/arm-none-eabi/4.7.4/../../../../arm-none-eabi/lib\libc_s.a(lib_a-errno.o)
 .debug_frame   0x00004c48       0x60 c:/isis/application/toolchain/bin/../lib/gcc/arm-none-eabi/4.7.4/../../../../arm-none-eabi/lib\libc_s.a(lib_a-printf.o)
 .debug_frame   0x00004ca8       0x48 c:/isis/application/toolchain/bin/../lib/gcc/arm-none-eabi/4.7.4/../../../../arm-none-eabi/lib\libc_s.a(lib_a-puts.o)
 .debug_frame   0x00004cf0       0x58 c:/isis/application/toolchain/bin/../lib/gcc/arm-none-eabi/4.7.4/../../../../arm-none-eabi/lib\libc_s.a(lib_a-snprintf.o)
 .debug_frame   0x00004d48       0x8c c:/isis/application/toolchain/bin/../lib/gcc/arm-none-eabi/4.7.4/../../../../arm-none-eabi/lib\libc_s.a(lib_a-vfprintf.o)
 .debug_frame   0x00004dd4       0x3c c:/isis/application/toolchain/bin/../lib/gcc/arm-none-eabi/4.7.4/../../../../arm-none-eabi/lib\libc_s.a(lib_a-wbuf.o)
 .debug_frame   0x00004e10       0x2c c:/isis/application/toolchain/bin/../lib/gcc/arm-none-eabi/4.7.4/../../../../arm-none-eabi/lib\libc_s.a(lib_a-wsetup.o)
 .debug_frame   0x00004e3c       0x48 c:/isis/application/toolchain/bin/../lib/gcc/arm-none-eabi/4.7.4/../../../../arm-none-eabi/lib\libc_s.a(lib_a-fflush.o)
 .debug_frame   0x00004e84      0x140 c:/isis/application/toolchain/bin/../lib/gcc/arm-none-eabi/4.7.4/../../../../arm-none-eabi/lib\libc_s.a(lib_a-findfp.o)
 .debug_frame   0x00004fc4       0x30 c:/isis/application/toolchain/bin/../lib/gcc/arm-none-eabi/4.7.4/../../../../arm-none-eabi/lib\libc_s.a(lib_a-makebuf.o)
 .debug_frame   0x00004ff4       0x3c c:/isis/application/toolchain/bin/../lib/gcc/arm-none-eabi/4.7.4/../../../../arm-none-eabi/lib\libc_s.a(lib_a-putc.o)
 .debug_frame   0x00005030       0x88 c:/isis/application/toolchain/bin/../lib/gcc/arm-none-eabi/4.7.4/../../../../arm-none-eabi/lib\libc_s.a(lib_a-stdio.o)
 .debug_frame   0x000050b8       0x2c c:/isis/application/toolchain/bin/../lib/gcc/arm-none-eabi/4.7.4/../../../../arm-none-eabi/lib\libc_s.a(lib_a-writer.o)
 .debug_frame   0x000050e4       0x2c c:/isis/application/toolchain/bin/../lib/gcc/arm-none-eabi/4.7.4/../../../../arm-none-eabi/lib\libc_s.a(lib_a-closer.o)
 .debug_frame   0x00005110       0x2c c:/isis/application/toolchain/bin/../lib/gcc/arm-none-eabi/4.7.4/../../../../arm-none-eabi/lib\libc_s.a(lib_a-fstatr.o)
 .debug_frame   0x0000513c       0x2c c:/isis/application/toolchain/bin/../lib/gcc/arm-none-eabi/4.7.4/../../../../arm-none-eabi/lib\libc_s.a(lib_a-isattyr.o)
 .debug_frame   0x00005168       0x2c c:/isis/application/toolchain/bin/../lib/gcc/arm-none-eabi/4.7.4/../../../../arm-none-eabi/lib\libc_s.a(lib_a-lseekr.o)
 .debug_frame   0x00005194       0x2c c:/isis/application/toolchain/bin/../lib/gcc/arm-none-eabi/4.7.4/../../../../arm-none-eabi/lib\libc_s.a(lib_a-readr.o)

.debug_info     0x00000000    0x184ce
 .debug_info    0x00000000      0x945 ./src/Demos/GomEPSdemo.o
 .debug_info    0x00000945      0x530 ./src/Demos/IsisAntSdemo.o
 .debug_info    0x00000e75     0x199c ./src/Demos/IsisEPSdemo.o
 .debug_info    0x00002811      0x159 ./src/Demos/IsisMTQv1demo.o
 .debug_info    0x0000296a     0x1343 ./src/Demos/IsisMTQv2demo.o
 .debug_info    0x00003cad      0x1a3 ./src/Demos/IsisSPdemo.o
 .debug_info    0x00003e50      0x20d ./src/Demos/IsisSPv2demo.o
 .debug_info    0x0000405d      0x593 ./src/Demos/IsisTRXUVdemo.o
 .debug_info    0x000045f0      0x60f ./src/Demos/IsisTRXVUdemo.o
 .debug_info    0x00004bff      0x56a ./src/Demos/IsisTxSdemo.o
 .debug_info    0x00005169      0x6fe ./src/Demos/common.o
 .debug_info    0x00005867      0x59f ./src/main.o
 .debug_info    0x00005e06     0x16bc D:/Internship 2018/OBC Projects/SecondProject/satellite-subsystems/demo/..//satellite-subsystems/lib\libSatelliteSubsystemsD.a(GomEPS.o)
 .debug_info    0x000074c2      0xa3e D:/Internship 2018/OBC Projects/SecondProject/satellite-subsystems/demo/..//satellite-subsystems/lib\libSatelliteSubsystemsD.a(IsisAntS.o)
 .debug_info    0x00007f00     0x1dca D:/Internship 2018/OBC Projects/SecondProject/satellite-subsystems/demo/..//satellite-subsystems/lib\libSatelliteSubsystemsD.a(IsisEPS.o)
 .debug_info    0x00009cca      0x316 D:/Internship 2018/OBC Projects/SecondProject/satellite-subsystems/demo/..//satellite-subsystems/lib\libSatelliteSubsystemsD.a(IsisMTQv1.o)
 .debug_info    0x00009fe0     0x1791 D:/Internship 2018/OBC Projects/SecondProject/satellite-subsystems/demo/..//satellite-subsystems/lib\libSatelliteSubsystemsD.a(IsisMTQv2.o)
 .debug_info    0x0000b771      0x324 D:/Internship 2018/OBC Projects/SecondProject/satellite-subsystems/demo/..//satellite-subsystems/lib\libSatelliteSubsystemsD.a(IsisSolarPanel.o)
 .debug_info    0x0000ba95      0xbb8 D:/Internship 2018/OBC Projects/SecondProject/satellite-subsystems/demo/..//satellite-subsystems/lib\libSatelliteSubsystemsD.a(IsisSolarPanelv2.o)
 .debug_info    0x0000c64d      0xf18 D:/Internship 2018/OBC Projects/SecondProject/satellite-subsystems/demo/..//satellite-subsystems/lib\libSatelliteSubsystemsD.a(IsisTRXUV.o)
 .debug_info    0x0000d565      0xdbe D:/Internship 2018/OBC Projects/SecondProject/satellite-subsystems/demo/..//satellite-subsystems/lib\libSatelliteSubsystemsD.a(IsisTRXVU.o)
 .debug_info    0x0000e323      0xa6e D:/Internship 2018/OBC Projects/SecondProject/satellite-subsystems/demo/..//satellite-subsystems/lib\libSatelliteSubsystemsD.a(IsisTxS.o)
 .debug_info    0x0000ed91       0xdf D:/Internship 2018/OBC Projects/SecondProject/satellite-subsystems/demo/..//satellite-subsystems/lib\libSatelliteSubsystemsD.a(version.o)
 .debug_info    0x0000ee70      0x6c2 D:/Internship 2018/OBC Projects/SecondProject/satellite-subsystems/demo/..//satellite-subsystems/lib\libSatelliteSubsystemsD.a(IsisTRXCommon.o)
 .debug_info    0x0000f532     0x106f D:/Internship 2018/OBC Projects/SecondProject/satellite-subsystems/demo/../..//hal/hal/lib\libHALD.a(I2C.o)
 .debug_info    0x000105a1      0x506 D:/Internship 2018/OBC Projects/SecondProject/satellite-subsystems/demo/../..//hal/hal/lib\libHALD.a(LED.o)
 .debug_info    0x00010aa7      0xdf5 D:/Internship 2018/OBC Projects/SecondProject/satellite-subsystems/demo/../..//hal/hal/lib\libHALD.a(SPI.o)
 .debug_info    0x0001189c      0x3f1 D:/Internship 2018/OBC Projects/SecondProject/satellite-subsystems/demo/../..//hal/hal/lib\libHALD.a(WatchDogTimerNoOS.o)
 .debug_info    0x00011c8d      0x1ab D:/Internship 2018/OBC Projects/SecondProject/satellite-subsystems/demo/../..//hal/hal/lib\libHALD.a(WatchDogTimerOS.o)
 .debug_info    0x00011e38      0x2b4 D:/Internship 2018/OBC Projects/SecondProject/satellite-subsystems/demo/../..//hal/hal/lib\libHALD.a(util.o)
 .debug_info    0x000120ec       0xcf D:/Internship 2018/OBC Projects/SecondProject/satellite-subsystems/demo/../..//hal/hal/lib\libHALD.a(version.o)
 .debug_info    0x000121bb      0xadf D:/Internship 2018/OBC Projects/SecondProject/satellite-subsystems/demo/../..//hal/freertos/lib\libFreeRTOSD.a(queue.o)
 .debug_info    0x00012c9a      0xede D:/Internship 2018/OBC Projects/SecondProject/satellite-subsystems/demo/../..//hal/freertos/lib\libFreeRTOSD.a(tasks.o)
 .debug_info    0x00013b78       0xde D:/Internship 2018/OBC Projects/SecondProject/satellite-subsystems/demo/../..//hal/freertos/lib\libFreeRTOSD.a(hooks.o)
 .debug_info    0x00013c56      0x110 D:/Internship 2018/OBC Projects/SecondProject/satellite-subsystems/demo/../..//hal/freertos/lib\libFreeRTOSD.a(standardMemMang.o)
 .debug_info    0x00013d66      0x330 D:/Internship 2018/OBC Projects/SecondProject/satellite-subsystems/demo/../..//hal/freertos/lib\libFreeRTOSD.a(port.o)
 .debug_info    0x00014096      0x2aa D:/Internship 2018/OBC Projects/SecondProject/satellite-subsystems/demo/../..//hal/freertos/lib\libFreeRTOSD.a(list.o)
 .debug_info    0x00014340      0x628 D:/Internship 2018/OBC Projects/SecondProject/satellite-subsystems/demo/../..//hal/at91/lib\libAt91D.a(syscalls.o)
 .debug_info    0x00014968      0x287 D:/Internship 2018/OBC Projects/SecondProject/satellite-subsystems/demo/../..//hal/at91/lib\libAt91D.a(aic.o)
 .debug_info    0x00014bef      0x1f7 D:/Internship 2018/OBC Projects/SecondProject/satellite-subsystems/demo/../..//hal/at91/lib\libAt91D.a(cp15.o)
 .debug_info    0x00014de6      0xc6e D:/Internship 2018/OBC Projects/SecondProject/satellite-subsystems/demo/../..//hal/at91/lib\libAt91D.a(dbgu.o)
 .debug_info    0x00015a54      0x734 D:/Internship 2018/OBC Projects/SecondProject/satellite-subsystems/demo/../..//hal/at91/lib\libAt91D.a(pio.o)
 .debug_info    0x00016188      0x1ae D:/Internship 2018/OBC Projects/SecondProject/satellite-subsystems/demo/../..//hal/at91/lib\libAt91D.a(pit.o)
 .debug_info    0x00016336      0x2fd D:/Internship 2018/OBC Projects/SecondProject/satellite-subsystems/demo/../..//hal/at91/lib\libAt91D.a(pmc.o)
 .debug_info    0x00016633      0x576 D:/Internship 2018/OBC Projects/SecondProject/satellite-subsystems/demo/../..//hal/at91/lib\libAt91D.a(spi_at91.o)
 .debug_info    0x00016ba9      0x63d D:/Internship 2018/OBC Projects/SecondProject/satellite-subsystems/demo/../..//hal/at91/lib\libAt91D.a(twi_at91.o)
 .debug_info    0x000171e6      0x22e D:/Internship 2018/OBC Projects/SecondProject/satellite-subsystems/demo/../..//hal/at91/lib\libAt91D.a(ExitHandler.o)
 .debug_info    0x00017414       0x92 D:/Internship 2018/OBC Projects/SecondProject/satellite-subsystems/demo/../..//hal/at91/lib\libAt91D.a(board_cstartup.o)
 .debug_info    0x000174a6       0x81 D:/Internship 2018/OBC Projects/SecondProject/satellite-subsystems/demo/../..//hal/at91/lib\libAt91D.a(cp15_asm.o)
 .debug_info    0x00017527      0x651 D:/Internship 2018/OBC Projects/SecondProject/satellite-subsystems/demo/../..//hal/at91/lib\libAt91D.a(board_lowlevel.o)
 .debug_info    0x00017b78      0x956 D:/Internship 2018/OBC Projects/SecondProject/satellite-subsystems/demo/../..//hal/at91/lib\libAt91D.a(board_memories.o)

.debug_abbrev   0x00000000     0x40f3
 .debug_abbrev  0x00000000      0x138 ./src/Demos/GomEPSdemo.o
 .debug_abbrev  0x00000138      0x145 ./src/Demos/IsisAntSdemo.o
 .debug_abbrev  0x0000027d      0x22c ./src/Demos/IsisEPSdemo.o
 .debug_abbrev  0x000004a9       0x94 ./src/Demos/IsisMTQv1demo.o
 .debug_abbrev  0x0000053d      0x219 ./src/Demos/IsisMTQv2demo.o
 .debug_abbrev  0x00000756       0xa6 ./src/Demos/IsisSPdemo.o
 .debug_abbrev  0x000007fc       0xaa ./src/Demos/IsisSPv2demo.o
 .debug_abbrev  0x000008a6      0x192 ./src/Demos/IsisTRXUVdemo.o
 .debug_abbrev  0x00000a38      0x151 ./src/Demos/IsisTRXVUdemo.o
 .debug_abbrev  0x00000b89      0x168 ./src/Demos/IsisTxSdemo.o
 .debug_abbrev  0x00000cf1      0x17a ./src/Demos/common.o
 .debug_abbrev  0x00000e6b      0x153 ./src/main.o
 .debug_abbrev  0x00000fbe      0x1bc D:/Internship 2018/OBC Projects/SecondProject/satellite-subsystems/demo/..//satellite-subsystems/lib\libSatelliteSubsystemsD.a(GomEPS.o)
 .debug_abbrev  0x0000117a      0x1b8 D:/Internship 2018/OBC Projects/SecondProject/satellite-subsystems/demo/..//satellite-subsystems/lib\libSatelliteSubsystemsD.a(IsisAntS.o)
 .debug_abbrev  0x00001332      0x21d D:/Internship 2018/OBC Projects/SecondProject/satellite-subsystems/demo/..//satellite-subsystems/lib\libSatelliteSubsystemsD.a(IsisEPS.o)
 .debug_abbrev  0x0000154f      0x115 D:/Internship 2018/OBC Projects/SecondProject/satellite-subsystems/demo/..//satellite-subsystems/lib\libSatelliteSubsystemsD.a(IsisMTQv1.o)
 .debug_abbrev  0x00001664      0x25e D:/Internship 2018/OBC Projects/SecondProject/satellite-subsystems/demo/..//satellite-subsystems/lib\libSatelliteSubsystemsD.a(IsisMTQv2.o)
 .debug_abbrev  0x000018c2       0xf1 D:/Internship 2018/OBC Projects/SecondProject/satellite-subsystems/demo/..//satellite-subsystems/lib\libSatelliteSubsystemsD.a(IsisSolarPanel.o)
 .debug_abbrev  0x000019b3      0x22b D:/Internship 2018/OBC Projects/SecondProject/satellite-subsystems/demo/..//satellite-subsystems/lib\libSatelliteSubsystemsD.a(IsisSolarPanelv2.o)
 .debug_abbrev  0x00001bde      0x19e D:/Internship 2018/OBC Projects/SecondProject/satellite-subsystems/demo/..//satellite-subsystems/lib\libSatelliteSubsystemsD.a(IsisTRXUV.o)
 .debug_abbrev  0x00001d7c      0x19e D:/Internship 2018/OBC Projects/SecondProject/satellite-subsystems/demo/..//satellite-subsystems/lib\libSatelliteSubsystemsD.a(IsisTRXVU.o)
 .debug_abbrev  0x00001f1a      0x19e D:/Internship 2018/OBC Projects/SecondProject/satellite-subsystems/demo/..//satellite-subsystems/lib\libSatelliteSubsystemsD.a(IsisTxS.o)
 .debug_abbrev  0x000020b8       0x45 D:/Internship 2018/OBC Projects/SecondProject/satellite-subsystems/demo/..//satellite-subsystems/lib\libSatelliteSubsystemsD.a(version.o)
 .debug_abbrev  0x000020fd      0x16d D:/Internship 2018/OBC Projects/SecondProject/satellite-subsystems/demo/..//satellite-subsystems/lib\libSatelliteSubsystemsD.a(IsisTRXCommon.o)
 .debug_abbrev  0x0000226a      0x2e0 D:/Internship 2018/OBC Projects/SecondProject/satellite-subsystems/demo/../..//hal/hal/lib\libHALD.a(I2C.o)
 .debug_abbrev  0x0000254a      0x163 D:/Internship 2018/OBC Projects/SecondProject/satellite-subsystems/demo/../..//hal/hal/lib\libHALD.a(LED.o)
 .debug_abbrev  0x000026ad      0x242 D:/Internship 2018/OBC Projects/SecondProject/satellite-subsystems/demo/../..//hal/hal/lib\libHALD.a(SPI.o)
 .debug_abbrev  0x000028ef       0xf6 D:/Internship 2018/OBC Projects/SecondProject/satellite-subsystems/demo/../..//hal/hal/lib\libHALD.a(WatchDogTimerNoOS.o)
 .debug_abbrev  0x000029e5       0xd3 D:/Internship 2018/OBC Projects/SecondProject/satellite-subsystems/demo/../..//hal/hal/lib\libHALD.a(WatchDogTimerOS.o)
 .debug_abbrev  0x00002ab8       0xd9 D:/Internship 2018/OBC Projects/SecondProject/satellite-subsystems/demo/../..//hal/hal/lib\libHALD.a(util.o)
 .debug_abbrev  0x00002b91       0x45 D:/Internship 2018/OBC Projects/SecondProject/satellite-subsystems/demo/../..//hal/hal/lib\libHALD.a(version.o)
 .debug_abbrev  0x00002bd6      0x1af D:/Internship 2018/OBC Projects/SecondProject/satellite-subsystems/demo/../..//hal/freertos/lib\libFreeRTOSD.a(queue.o)
 .debug_abbrev  0x00002d85      0x1e9 D:/Internship 2018/OBC Projects/SecondProject/satellite-subsystems/demo/../..//hal/freertos/lib\libFreeRTOSD.a(tasks.o)
 .debug_abbrev  0x00002f6e       0x8a D:/Internship 2018/OBC Projects/SecondProject/satellite-subsystems/demo/../..//hal/freertos/lib\libFreeRTOSD.a(hooks.o)
 .debug_abbrev  0x00002ff8       0xc6 D:/Internship 2018/OBC Projects/SecondProject/satellite-subsystems/demo/../..//hal/freertos/lib\libFreeRTOSD.a(standardMemMang.o)
 .debug_abbrev  0x000030be      0x1dc D:/Internship 2018/OBC Projects/SecondProject/satellite-subsystems/demo/../..//hal/freertos/lib\libFreeRTOSD.a(port.o)
 .debug_abbrev  0x0000329a       0xc0 D:/Internship 2018/OBC Projects/SecondProject/satellite-subsystems/demo/../..//hal/freertos/lib\libFreeRTOSD.a(list.o)
 .debug_abbrev  0x0000335a      0x152 D:/Internship 2018/OBC Projects/SecondProject/satellite-subsystems/demo/../..//hal/at91/lib\libAt91D.a(syscalls.o)
 .debug_abbrev  0x000034ac       0xc3 D:/Internship 2018/OBC Projects/SecondProject/satellite-subsystems/demo/../..//hal/at91/lib\libAt91D.a(aic.o)
 .debug_abbrev  0x0000356f       0x89 D:/Internship 2018/OBC Projects/SecondProject/satellite-subsystems/demo/../..//hal/at91/lib\libAt91D.a(cp15.o)
 .debug_abbrev  0x000035f8      0x1f7 D:/Internship 2018/OBC Projects/SecondProject/satellite-subsystems/demo/../..//hal/at91/lib\libAt91D.a(dbgu.o)
 .debug_abbrev  0x000037ef      0x185 D:/Internship 2018/OBC Projects/SecondProject/satellite-subsystems/demo/../..//hal/at91/lib\libAt91D.a(pio.o)
 .debug_abbrev  0x00003974       0xd3 D:/Internship 2018/OBC Projects/SecondProject/satellite-subsystems/demo/../..//hal/at91/lib\libAt91D.a(pit.o)
 .debug_abbrev  0x00003a47      0x115 D:/Internship 2018/OBC Projects/SecondProject/satellite-subsystems/demo/../..//hal/at91/lib\libAt91D.a(pmc.o)
 .debug_abbrev  0x00003b5c       0xff D:/Internship 2018/OBC Projects/SecondProject/satellite-subsystems/demo/../..//hal/at91/lib\libAt91D.a(spi_at91.o)
 .debug_abbrev  0x00003c5b      0x180 D:/Internship 2018/OBC Projects/SecondProject/satellite-subsystems/demo/../..//hal/at91/lib\libAt91D.a(twi_at91.o)
 .debug_abbrev  0x00003ddb       0xbf D:/Internship 2018/OBC Projects/SecondProject/satellite-subsystems/demo/../..//hal/at91/lib\libAt91D.a(ExitHandler.o)
 .debug_abbrev  0x00003e9a       0x12 D:/Internship 2018/OBC Projects/SecondProject/satellite-subsystems/demo/../..//hal/at91/lib\libAt91D.a(board_cstartup.o)
 .debug_abbrev  0x00003eac       0x14 D:/Internship 2018/OBC Projects/SecondProject/satellite-subsystems/demo/../..//hal/at91/lib\libAt91D.a(cp15_asm.o)
 .debug_abbrev  0x00003ec0       0xea D:/Internship 2018/OBC Projects/SecondProject/satellite-subsystems/demo/../..//hal/at91/lib\libAt91D.a(board_lowlevel.o)
 .debug_abbrev  0x00003faa      0x149 D:/Internship 2018/OBC Projects/SecondProject/satellite-subsystems/demo/../..//hal/at91/lib\libAt91D.a(board_memories.o)

.debug_loc      0x00000000     0x646c
 .debug_loc     0x00000000      0x1b8 ./src/Demos/GomEPSdemo.o
 .debug_loc     0x000001b8      0x1e4 ./src/Demos/IsisAntSdemo.o
 .debug_loc     0x0000039c      0x6b4 ./src/Demos/IsisEPSdemo.o
 .debug_loc     0x00000a50       0xdc ./src/Demos/IsisMTQv1demo.o
 .debug_loc     0x00000b2c      0x528 ./src/Demos/IsisMTQv2demo.o
 .debug_loc     0x00001054       0x84 ./src/Demos/IsisSPdemo.o
 .debug_loc     0x000010d8       0xb0 ./src/Demos/IsisSPv2demo.o
 .debug_loc     0x00001188      0x23c ./src/Demos/IsisTRXUVdemo.o
 .debug_loc     0x000013c4      0x268 ./src/Demos/IsisTRXVUdemo.o
 .debug_loc     0x0000162c      0x210 ./src/Demos/IsisTxSdemo.o
 .debug_loc     0x0000183c      0x108 ./src/Demos/common.o
 .debug_loc     0x00001944       0x84 ./src/main.o
 .debug_loc     0x000019c8      0x420 D:/Internship 2018/OBC Projects/SecondProject/satellite-subsystems/demo/..//satellite-subsystems/lib\libSatelliteSubsystemsD.a(GomEPS.o)
 .debug_loc     0x00001de8      0x268 D:/Internship 2018/OBC Projects/SecondProject/satellite-subsystems/demo/..//satellite-subsystems/lib\libSatelliteSubsystemsD.a(IsisAntS.o)
 .debug_loc     0x00002050      0x5ac D:/Internship 2018/OBC Projects/SecondProject/satellite-subsystems/demo/..//satellite-subsystems/lib\libSatelliteSubsystemsD.a(IsisEPS.o)
 .debug_loc     0x000025fc       0xb0 D:/Internship 2018/OBC Projects/SecondProject/satellite-subsystems/demo/..//satellite-subsystems/lib\libSatelliteSubsystemsD.a(IsisMTQv1.o)
 .debug_loc     0x000026ac      0x478 D:/Internship 2018/OBC Projects/SecondProject/satellite-subsystems/demo/..//satellite-subsystems/lib\libSatelliteSubsystemsD.a(IsisMTQv2.o)
 .debug_loc     0x00002b24       0x2c D:/Internship 2018/OBC Projects/SecondProject/satellite-subsystems/demo/..//satellite-subsystems/lib\libSatelliteSubsystemsD.a(IsisSolarPanel.o)
 .debug_loc     0x00002b50      0x2c0 D:/Internship 2018/OBC Projects/SecondProject/satellite-subsystems/demo/..//satellite-subsystems/lib\libSatelliteSubsystemsD.a(IsisSolarPanelv2.o)
 .debug_loc     0x00002e10      0x478 D:/Internship 2018/OBC Projects/SecondProject/satellite-subsystems/demo/..//satellite-subsystems/lib\libSatelliteSubsystemsD.a(IsisTRXUV.o)
 .debug_loc     0x00003288      0x420 D:/Internship 2018/OBC Projects/SecondProject/satellite-subsystems/demo/..//satellite-subsystems/lib\libSatelliteSubsystemsD.a(IsisTRXVU.o)
 .debug_loc     0x000036a8      0x294 D:/Internship 2018/OBC Projects/SecondProject/satellite-subsystems/demo/..//satellite-subsystems/lib\libSatelliteSubsystemsD.a(IsisTxS.o)
 .debug_loc     0x0000393c      0x268 D:/Internship 2018/OBC Projects/SecondProject/satellite-subsystems/demo/..//satellite-subsystems/lib\libSatelliteSubsystemsD.a(IsisTRXCommon.o)
 .debug_loc     0x00003ba4      0x3c8 D:/Internship 2018/OBC Projects/SecondProject/satellite-subsystems/demo/../..//hal/hal/lib\libHALD.a(I2C.o)
 .debug_loc     0x00003f6c      0x134 D:/Internship 2018/OBC Projects/SecondProject/satellite-subsystems/demo/../..//hal/hal/lib\libHALD.a(LED.o)
 .debug_loc     0x000040a0      0x210 D:/Internship 2018/OBC Projects/SecondProject/satellite-subsystems/demo/../..//hal/hal/lib\libHALD.a(SPI.o)
 .debug_loc     0x000042b0       0x84 D:/Internship 2018/OBC Projects/SecondProject/satellite-subsystems/demo/../..//hal/hal/lib\libHALD.a(WatchDogTimerNoOS.o)
 .debug_loc     0x00004334       0xb0 D:/Internship 2018/OBC Projects/SecondProject/satellite-subsystems/demo/../..//hal/hal/lib\libHALD.a(WatchDogTimerOS.o)
 .debug_loc     0x000043e4      0x134 D:/Internship 2018/OBC Projects/SecondProject/satellite-subsystems/demo/../..//hal/hal/lib\libHALD.a(util.o)
 .debug_loc     0x00004518      0x420 D:/Internship 2018/OBC Projects/SecondProject/satellite-subsystems/demo/../..//hal/freertos/lib\libFreeRTOSD.a(queue.o)
 .debug_loc     0x00004938      0x65c D:/Internship 2018/OBC Projects/SecondProject/satellite-subsystems/demo/../..//hal/freertos/lib\libFreeRTOSD.a(tasks.o)
 .debug_loc     0x00004f94       0x58 D:/Internship 2018/OBC Projects/SecondProject/satellite-subsystems/demo/../..//hal/freertos/lib\libFreeRTOSD.a(hooks.o)
 .debug_loc     0x00004fec       0xb0 D:/Internship 2018/OBC Projects/SecondProject/satellite-subsystems/demo/../..//hal/freertos/lib\libFreeRTOSD.a(standardMemMang.o)
 .debug_loc     0x0000509c      0x160 D:/Internship 2018/OBC Projects/SecondProject/satellite-subsystems/demo/../..//hal/freertos/lib\libFreeRTOSD.a(port.o)
 .debug_loc     0x000051fc       0xdc D:/Internship 2018/OBC Projects/SecondProject/satellite-subsystems/demo/../..//hal/freertos/lib\libFreeRTOSD.a(list.o)
 .debug_loc     0x000052d8      0x324 D:/Internship 2018/OBC Projects/SecondProject/satellite-subsystems/demo/../..//hal/at91/lib\libAt91D.a(syscalls.o)
 .debug_loc     0x000055fc       0x84 D:/Internship 2018/OBC Projects/SecondProject/satellite-subsystems/demo/../..//hal/at91/lib\libAt91D.a(aic.o)
 .debug_loc     0x00005680      0x18c D:/Internship 2018/OBC Projects/SecondProject/satellite-subsystems/demo/../..//hal/at91/lib\libAt91D.a(cp15.o)
 .debug_loc     0x0000580c      0x134 D:/Internship 2018/OBC Projects/SecondProject/satellite-subsystems/demo/../..//hal/at91/lib\libAt91D.a(dbgu.o)
 .debug_loc     0x00005940      0x1b8 D:/Internship 2018/OBC Projects/SecondProject/satellite-subsystems/demo/../..//hal/at91/lib\libAt91D.a(pio.o)
 .debug_loc     0x00005af8      0x18c D:/Internship 2018/OBC Projects/SecondProject/satellite-subsystems/demo/../..//hal/at91/lib\libAt91D.a(pit.o)
 .debug_loc     0x00005c84      0x160 D:/Internship 2018/OBC Projects/SecondProject/satellite-subsystems/demo/../..//hal/at91/lib\libAt91D.a(pmc.o)
 .debug_loc     0x00005de4      0x18c D:/Internship 2018/OBC Projects/SecondProject/satellite-subsystems/demo/../..//hal/at91/lib\libAt91D.a(spi_at91.o)
 .debug_loc     0x00005f70      0x294 D:/Internship 2018/OBC Projects/SecondProject/satellite-subsystems/demo/../..//hal/at91/lib\libAt91D.a(twi_at91.o)
 .debug_loc     0x00006204       0xdc D:/Internship 2018/OBC Projects/SecondProject/satellite-subsystems/demo/../..//hal/at91/lib\libAt91D.a(ExitHandler.o)
 .debug_loc     0x000062e0       0xdc D:/Internship 2018/OBC Projects/SecondProject/satellite-subsystems/demo/../..//hal/at91/lib\libAt91D.a(board_lowlevel.o)
 .debug_loc     0x000063bc       0xb0 D:/Internship 2018/OBC Projects/SecondProject/satellite-subsystems/demo/../..//hal/at91/lib\libAt91D.a(board_memories.o)

.debug_aranges  0x00000000     0x1738
 .debug_aranges
                0x00000000       0x68 ./src/Demos/GomEPSdemo.o
 .debug_aranges
                0x00000068       0x70 ./src/Demos/IsisAntSdemo.o
 .debug_aranges
                0x000000d8      0x150 ./src/Demos/IsisEPSdemo.o
 .debug_aranges
                0x00000228       0x40 ./src/Demos/IsisMTQv1demo.o
 .debug_aranges
                0x00000268      0x108 ./src/Demos/IsisMTQv2demo.o
 .debug_aranges
                0x00000370       0x30 ./src/Demos/IsisSPdemo.o
 .debug_aranges
                0x000003a0       0x38 ./src/Demos/IsisSPv2demo.o
 .debug_aranges
                0x000003d8       0x80 ./src/Demos/IsisTRXUVdemo.o
 .debug_aranges
                0x00000458       0x88 ./src/Demos/IsisTRXVUdemo.o
 .debug_aranges
                0x000004e0       0x78 ./src/Demos/IsisTxSdemo.o
 .debug_aranges
                0x00000558       0x48 ./src/Demos/common.o
 .debug_aranges
                0x000005a0       0x30 ./src/main.o
 .debug_aranges
                0x000005d0       0xd8 D:/Internship 2018/OBC Projects/SecondProject/satellite-subsystems/demo/..//satellite-subsystems/lib\libSatelliteSubsystemsD.a(GomEPS.o)
 .debug_aranges
                0x000006a8       0x88 D:/Internship 2018/OBC Projects/SecondProject/satellite-subsystems/demo/..//satellite-subsystems/lib\libSatelliteSubsystemsD.a(IsisAntS.o)
 .debug_aranges
                0x00000730      0x120 D:/Internship 2018/OBC Projects/SecondProject/satellite-subsystems/demo/..//satellite-subsystems/lib\libSatelliteSubsystemsD.a(IsisEPS.o)
 .debug_aranges
                0x00000850       0x38 D:/Internship 2018/OBC Projects/SecondProject/satellite-subsystems/demo/..//satellite-subsystems/lib\libSatelliteSubsystemsD.a(IsisMTQv1.o)
 .debug_aranges
                0x00000888       0xe8 D:/Internship 2018/OBC Projects/SecondProject/satellite-subsystems/demo/..//satellite-subsystems/lib\libSatelliteSubsystemsD.a(IsisMTQv2.o)
 .debug_aranges
                0x00000970       0x20 D:/Internship 2018/OBC Projects/SecondProject/satellite-subsystems/demo/..//satellite-subsystems/lib\libSatelliteSubsystemsD.a(IsisSolarPanel.o)
 .debug_aranges
                0x00000990       0x98 D:/Internship 2018/OBC Projects/SecondProject/satellite-subsystems/demo/..//satellite-subsystems/lib\libSatelliteSubsystemsD.a(IsisSolarPanelv2.o)
 .debug_aranges
                0x00000a28       0xe8 D:/Internship 2018/OBC Projects/SecondProject/satellite-subsystems/demo/..//satellite-subsystems/lib\libSatelliteSubsystemsD.a(IsisTRXUV.o)
 .debug_aranges
                0x00000b10       0xd8 D:/Internship 2018/OBC Projects/SecondProject/satellite-subsystems/demo/..//satellite-subsystems/lib\libSatelliteSubsystemsD.a(IsisTRXVU.o)
 .debug_aranges
                0x00000be8       0x90 D:/Internship 2018/OBC Projects/SecondProject/satellite-subsystems/demo/..//satellite-subsystems/lib\libSatelliteSubsystemsD.a(IsisTxS.o)
 .debug_aranges
                0x00000c78       0x18 D:/Internship 2018/OBC Projects/SecondProject/satellite-subsystems/demo/..//satellite-subsystems/lib\libSatelliteSubsystemsD.a(version.o)
 .debug_aranges
                0x00000c90       0x88 D:/Internship 2018/OBC Projects/SecondProject/satellite-subsystems/demo/..//satellite-subsystems/lib\libSatelliteSubsystemsD.a(IsisTRXCommon.o)
 .debug_aranges
                0x00000d18       0xc8 D:/Internship 2018/OBC Projects/SecondProject/satellite-subsystems/demo/../..//hal/hal/lib\libHALD.a(I2C.o)
 .debug_aranges
                0x00000de0       0x50 D:/Internship 2018/OBC Projects/SecondProject/satellite-subsystems/demo/../..//hal/hal/lib\libHALD.a(LED.o)
 .debug_aranges
                0x00000e30       0x78 D:/Internship 2018/OBC Projects/SecondProject/satellite-subsystems/demo/../..//hal/hal/lib\libHALD.a(SPI.o)
 .debug_aranges
                0x00000ea8       0x30 D:/Internship 2018/OBC Projects/SecondProject/satellite-subsystems/demo/../..//hal/hal/lib\libHALD.a(WatchDogTimerNoOS.o)
 .debug_aranges
                0x00000ed8       0x38 D:/Internship 2018/OBC Projects/SecondProject/satellite-subsystems/demo/../..//hal/hal/lib\libHALD.a(WatchDogTimerOS.o)
 .debug_aranges
                0x00000f10       0x50 D:/Internship 2018/OBC Projects/SecondProject/satellite-subsystems/demo/../..//hal/hal/lib\libHALD.a(util.o)
 .debug_aranges
                0x00000f60       0x18 D:/Internship 2018/OBC Projects/SecondProject/satellite-subsystems/demo/../..//hal/hal/lib\libHALD.a(version.o)
 .debug_aranges
                0x00000f78       0xd8 D:/Internship 2018/OBC Projects/SecondProject/satellite-subsystems/demo/../..//hal/freertos/lib\libFreeRTOSD.a(queue.o)
 .debug_aranges
                0x00001050      0x140 D:/Internship 2018/OBC Projects/SecondProject/satellite-subsystems/demo/../..//hal/freertos/lib\libFreeRTOSD.a(tasks.o)
 .debug_aranges
                0x00001190       0x28 D:/Internship 2018/OBC Projects/SecondProject/satellite-subsystems/demo/../..//hal/freertos/lib\libFreeRTOSD.a(hooks.o)
 .debug_aranges
                0x000011b8       0x38 D:/Internship 2018/OBC Projects/SecondProject/satellite-subsystems/demo/../..//hal/freertos/lib\libFreeRTOSD.a(standardMemMang.o)
 .debug_aranges
                0x000011f0       0x70 D:/Internship 2018/OBC Projects/SecondProject/satellite-subsystems/demo/../..//hal/freertos/lib\libFreeRTOSD.a(port.o)
 .debug_aranges
                0x00001260       0x40 D:/Internship 2018/OBC Projects/SecondProject/satellite-subsystems/demo/../..//hal/freertos/lib\libFreeRTOSD.a(list.o)
 .debug_aranges
                0x000012a0       0xa8 D:/Internship 2018/OBC Projects/SecondProject/satellite-subsystems/demo/../..//hal/at91/lib\libAt91D.a(syscalls.o)
 .debug_aranges
                0x00001348       0x30 D:/Internship 2018/OBC Projects/SecondProject/satellite-subsystems/demo/../..//hal/at91/lib\libAt91D.a(aic.o)
 .debug_aranges
                0x00001378       0x60 D:/Internship 2018/OBC Projects/SecondProject/satellite-subsystems/demo/../..//hal/at91/lib\libAt91D.a(cp15.o)
 .debug_aranges
                0x000013d8       0x50 D:/Internship 2018/OBC Projects/SecondProject/satellite-subsystems/demo/../..//hal/at91/lib\libAt91D.a(dbgu.o)
 .debug_aranges
                0x00001428       0x68 D:/Internship 2018/OBC Projects/SecondProject/satellite-subsystems/demo/../..//hal/at91/lib\libAt91D.a(pio.o)
 .debug_aranges
                0x00001490       0x60 D:/Internship 2018/OBC Projects/SecondProject/satellite-subsystems/demo/../..//hal/at91/lib\libAt91D.a(pit.o)
 .debug_aranges
                0x000014f0       0x58 D:/Internship 2018/OBC Projects/SecondProject/satellite-subsystems/demo/../..//hal/at91/lib\libAt91D.a(pmc.o)
 .debug_aranges
                0x00001548       0x60 D:/Internship 2018/OBC Projects/SecondProject/satellite-subsystems/demo/../..//hal/at91/lib\libAt91D.a(spi_at91.o)
 .debug_aranges
                0x000015a8       0x90 D:/Internship 2018/OBC Projects/SecondProject/satellite-subsystems/demo/../..//hal/at91/lib\libAt91D.a(twi_at91.o)
 .debug_aranges
                0x00001638       0x40 D:/Internship 2018/OBC Projects/SecondProject/satellite-subsystems/demo/../..//hal/at91/lib\libAt91D.a(ExitHandler.o)
 .debug_aranges
                0x00001678       0x28 D:/Internship 2018/OBC Projects/SecondProject/satellite-subsystems/demo/../..//hal/at91/lib\libAt91D.a(board_cstartup.o)
 .debug_aranges
                0x000016a0       0x20 D:/Internship 2018/OBC Projects/SecondProject/satellite-subsystems/demo/../..//hal/at91/lib\libAt91D.a(cp15_asm.o)
 .debug_aranges
                0x000016c0       0x40 D:/Internship 2018/OBC Projects/SecondProject/satellite-subsystems/demo/../..//hal/at91/lib\libAt91D.a(board_lowlevel.o)
 .debug_aranges
                0x00001700       0x38 D:/Internship 2018/OBC Projects/SecondProject/satellite-subsystems/demo/../..//hal/at91/lib\libAt91D.a(board_memories.o)

.debug_ranges   0x00000000     0x1408
 .debug_ranges  0x00000000       0x58 ./src/Demos/GomEPSdemo.o
 .debug_ranges  0x00000058       0x60 ./src/Demos/IsisAntSdemo.o
 .debug_ranges  0x000000b8      0x140 ./src/Demos/IsisEPSdemo.o
 .debug_ranges  0x000001f8       0x30 ./src/Demos/IsisMTQv1demo.o
 .debug_ranges  0x00000228       0xf8 ./src/Demos/IsisMTQv2demo.o
 .debug_ranges  0x00000320       0x20 ./src/Demos/IsisSPdemo.o
 .debug_ranges  0x00000340       0x28 ./src/Demos/IsisSPv2demo.o
 .debug_ranges  0x00000368       0x70 ./src/Demos/IsisTRXUVdemo.o
 .debug_ranges  0x000003d8       0x78 ./src/Demos/IsisTRXVUdemo.o
 .debug_ranges  0x00000450       0x68 ./src/Demos/IsisTxSdemo.o
 .debug_ranges  0x000004b8       0x38 ./src/Demos/common.o
 .debug_ranges  0x000004f0       0x20 ./src/main.o
 .debug_ranges  0x00000510       0xc8 D:/Internship 2018/OBC Projects/SecondProject/satellite-subsystems/demo/..//satellite-subsystems/lib\libSatelliteSubsystemsD.a(GomEPS.o)
 .debug_ranges  0x000005d8       0x78 D:/Internship 2018/OBC Projects/SecondProject/satellite-subsystems/demo/..//satellite-subsystems/lib\libSatelliteSubsystemsD.a(IsisAntS.o)
 .debug_ranges  0x00000650      0x110 D:/Internship 2018/OBC Projects/SecondProject/satellite-subsystems/demo/..//satellite-subsystems/lib\libSatelliteSubsystemsD.a(IsisEPS.o)
 .debug_ranges  0x00000760       0x28 D:/Internship 2018/OBC Projects/SecondProject/satellite-subsystems/demo/..//satellite-subsystems/lib\libSatelliteSubsystemsD.a(IsisMTQv1.o)
 .debug_ranges  0x00000788       0xd8 D:/Internship 2018/OBC Projects/SecondProject/satellite-subsystems/demo/..//satellite-subsystems/lib\libSatelliteSubsystemsD.a(IsisMTQv2.o)
 .debug_ranges  0x00000860       0x10 D:/Internship 2018/OBC Projects/SecondProject/satellite-subsystems/demo/..//satellite-subsystems/lib\libSatelliteSubsystemsD.a(IsisSolarPanel.o)
 .debug_ranges  0x00000870       0x88 D:/Internship 2018/OBC Projects/SecondProject/satellite-subsystems/demo/..//satellite-subsystems/lib\libSatelliteSubsystemsD.a(IsisSolarPanelv2.o)
 .debug_ranges  0x000008f8       0xd8 D:/Internship 2018/OBC Projects/SecondProject/satellite-subsystems/demo/..//satellite-subsystems/lib\libSatelliteSubsystemsD.a(IsisTRXUV.o)
 .debug_ranges  0x000009d0       0xc8 D:/Internship 2018/OBC Projects/SecondProject/satellite-subsystems/demo/..//satellite-subsystems/lib\libSatelliteSubsystemsD.a(IsisTRXVU.o)
 .debug_ranges  0x00000a98       0x80 D:/Internship 2018/OBC Projects/SecondProject/satellite-subsystems/demo/..//satellite-subsystems/lib\libSatelliteSubsystemsD.a(IsisTxS.o)
 .debug_ranges  0x00000b18       0x78 D:/Internship 2018/OBC Projects/SecondProject/satellite-subsystems/demo/..//satellite-subsystems/lib\libSatelliteSubsystemsD.a(IsisTRXCommon.o)
 .debug_ranges  0x00000b90       0xb8 D:/Internship 2018/OBC Projects/SecondProject/satellite-subsystems/demo/../..//hal/hal/lib\libHALD.a(I2C.o)
 .debug_ranges  0x00000c48       0x40 D:/Internship 2018/OBC Projects/SecondProject/satellite-subsystems/demo/../..//hal/hal/lib\libHALD.a(LED.o)
 .debug_ranges  0x00000c88       0x68 D:/Internship 2018/OBC Projects/SecondProject/satellite-subsystems/demo/../..//hal/hal/lib\libHALD.a(SPI.o)
 .debug_ranges  0x00000cf0       0x20 D:/Internship 2018/OBC Projects/SecondProject/satellite-subsystems/demo/../..//hal/hal/lib\libHALD.a(WatchDogTimerNoOS.o)
 .debug_ranges  0x00000d10       0x28 D:/Internship 2018/OBC Projects/SecondProject/satellite-subsystems/demo/../..//hal/hal/lib\libHALD.a(WatchDogTimerOS.o)
 .debug_ranges  0x00000d38       0x40 D:/Internship 2018/OBC Projects/SecondProject/satellite-subsystems/demo/../..//hal/hal/lib\libHALD.a(util.o)
 .debug_ranges  0x00000d78       0xc8 D:/Internship 2018/OBC Projects/SecondProject/satellite-subsystems/demo/../..//hal/freertos/lib\libFreeRTOSD.a(queue.o)
 .debug_ranges  0x00000e40      0x148 D:/Internship 2018/OBC Projects/SecondProject/satellite-subsystems/demo/../..//hal/freertos/lib\libFreeRTOSD.a(tasks.o)
 .debug_ranges  0x00000f88       0x18 D:/Internship 2018/OBC Projects/SecondProject/satellite-subsystems/demo/../..//hal/freertos/lib\libFreeRTOSD.a(hooks.o)
 .debug_ranges  0x00000fa0       0x28 D:/Internship 2018/OBC Projects/SecondProject/satellite-subsystems/demo/../..//hal/freertos/lib\libFreeRTOSD.a(standardMemMang.o)
 .debug_ranges  0x00000fc8       0x60 D:/Internship 2018/OBC Projects/SecondProject/satellite-subsystems/demo/../..//hal/freertos/lib\libFreeRTOSD.a(port.o)
 .debug_ranges  0x00001028       0x30 D:/Internship 2018/OBC Projects/SecondProject/satellite-subsystems/demo/../..//hal/freertos/lib\libFreeRTOSD.a(list.o)
 .debug_ranges  0x00001058       0x98 D:/Internship 2018/OBC Projects/SecondProject/satellite-subsystems/demo/../..//hal/at91/lib\libAt91D.a(syscalls.o)
 .debug_ranges  0x000010f0       0x20 D:/Internship 2018/OBC Projects/SecondProject/satellite-subsystems/demo/../..//hal/at91/lib\libAt91D.a(aic.o)
 .debug_ranges  0x00001110       0x50 D:/Internship 2018/OBC Projects/SecondProject/satellite-subsystems/demo/../..//hal/at91/lib\libAt91D.a(cp15.o)
 .debug_ranges  0x00001160       0x40 D:/Internship 2018/OBC Projects/SecondProject/satellite-subsystems/demo/../..//hal/at91/lib\libAt91D.a(dbgu.o)
 .debug_ranges  0x000011a0       0x58 D:/Internship 2018/OBC Projects/SecondProject/satellite-subsystems/demo/../..//hal/at91/lib\libAt91D.a(pio.o)
 .debug_ranges  0x000011f8       0x50 D:/Internship 2018/OBC Projects/SecondProject/satellite-subsystems/demo/../..//hal/at91/lib\libAt91D.a(pit.o)
 .debug_ranges  0x00001248       0x48 D:/Internship 2018/OBC Projects/SecondProject/satellite-subsystems/demo/../..//hal/at91/lib\libAt91D.a(pmc.o)
 .debug_ranges  0x00001290       0x50 D:/Internship 2018/OBC Projects/SecondProject/satellite-subsystems/demo/../..//hal/at91/lib\libAt91D.a(spi_at91.o)
 .debug_ranges  0x000012e0       0x80 D:/Internship 2018/OBC Projects/SecondProject/satellite-subsystems/demo/../..//hal/at91/lib\libAt91D.a(twi_at91.o)
 .debug_ranges  0x00001360       0x30 D:/Internship 2018/OBC Projects/SecondProject/satellite-subsystems/demo/../..//hal/at91/lib\libAt91D.a(ExitHandler.o)
 .debug_ranges  0x00001390       0x20 D:/Internship 2018/OBC Projects/SecondProject/satellite-subsystems/demo/../..//hal/at91/lib\libAt91D.a(board_cstartup.o)
 .debug_ranges  0x000013b0       0x30 D:/Internship 2018/OBC Projects/SecondProject/satellite-subsystems/demo/../..//hal/at91/lib\libAt91D.a(board_lowlevel.o)
 .debug_ranges  0x000013e0       0x28 D:/Internship 2018/OBC Projects/SecondProject/satellite-subsystems/demo/../..//hal/at91/lib\libAt91D.a(board_memories.o)

.debug_line     0x00000000     0x92a4
 .debug_line    0x00000000      0x2c2 ./src/Demos/GomEPSdemo.o
 .debug_line    0x000002c2      0x316 ./src/Demos/IsisAntSdemo.o
 .debug_line    0x000005d8      0x973 ./src/Demos/IsisEPSdemo.o
 .debug_line    0x00000f4b      0x127 ./src/Demos/IsisMTQv1demo.o
 .debug_line    0x00001072      0x72c ./src/Demos/IsisMTQv2demo.o
 .debug_line    0x0000179e      0x222 ./src/Demos/IsisSPdemo.o
 .debug_line    0x000019c0      0x341 ./src/Demos/IsisSPv2demo.o
 .debug_line    0x00001d01      0x3c0 ./src/Demos/IsisTRXUVdemo.o
 .debug_line    0x000020c1      0x3b5 ./src/Demos/IsisTRXVUdemo.o
 .debug_line    0x00002476      0x366 ./src/Demos/IsisTxSdemo.o
 .debug_line    0x000027dc      0x54b ./src/Demos/common.o
 .debug_line    0x00002d27      0x4fc ./src/main.o
 .debug_line    0x00003223      0x67c D:/Internship 2018/OBC Projects/SecondProject/satellite-subsystems/demo/..//satellite-subsystems/lib\libSatelliteSubsystemsD.a(GomEPS.o)
 .debug_line    0x0000389f      0x306 D:/Internship 2018/OBC Projects/SecondProject/satellite-subsystems/demo/..//satellite-subsystems/lib\libSatelliteSubsystemsD.a(IsisAntS.o)
 .debug_line    0x00003ba5      0x57e D:/Internship 2018/OBC Projects/SecondProject/satellite-subsystems/demo/..//satellite-subsystems/lib\libSatelliteSubsystemsD.a(IsisEPS.o)
 .debug_line    0x00004123      0x1ad D:/Internship 2018/OBC Projects/SecondProject/satellite-subsystems/demo/..//satellite-subsystems/lib\libSatelliteSubsystemsD.a(IsisMTQv1.o)
 .debug_line    0x000042d0      0x555 D:/Internship 2018/OBC Projects/SecondProject/satellite-subsystems/demo/..//satellite-subsystems/lib\libSatelliteSubsystemsD.a(IsisMTQv2.o)
 .debug_line    0x00004825      0x15a D:/Internship 2018/OBC Projects/SecondProject/satellite-subsystems/demo/..//satellite-subsystems/lib\libSatelliteSubsystemsD.a(IsisSolarPanel.o)
 .debug_line    0x0000497f      0x466 D:/Internship 2018/OBC Projects/SecondProject/satellite-subsystems/demo/..//satellite-subsystems/lib\libSatelliteSubsystemsD.a(IsisSolarPanelv2.o)
 .debug_line    0x00004de5      0x497 D:/Internship 2018/OBC Projects/SecondProject/satellite-subsystems/demo/..//satellite-subsystems/lib\libSatelliteSubsystemsD.a(IsisTRXUV.o)
 .debug_line    0x0000527c      0x42a D:/Internship 2018/OBC Projects/SecondProject/satellite-subsystems/demo/..//satellite-subsystems/lib\libSatelliteSubsystemsD.a(IsisTRXVU.o)
 .debug_line    0x000056a6      0x32c D:/Internship 2018/OBC Projects/SecondProject/satellite-subsystems/demo/..//satellite-subsystems/lib\libSatelliteSubsystemsD.a(IsisTxS.o)
 .debug_line    0x000059d2       0x36 D:/Internship 2018/OBC Projects/SecondProject/satellite-subsystems/demo/..//satellite-subsystems/lib\libSatelliteSubsystemsD.a(version.o)
 .debug_line    0x00005a08      0x25e D:/Internship 2018/OBC Projects/SecondProject/satellite-subsystems/demo/..//satellite-subsystems/lib\libSatelliteSubsystemsD.a(IsisTRXCommon.o)
 .debug_line    0x00005c66      0x4fa D:/Internship 2018/OBC Projects/SecondProject/satellite-subsystems/demo/../..//hal/hal/lib\libHALD.a(I2C.o)
 .debug_line    0x00006160      0x1fa D:/Internship 2018/OBC Projects/SecondProject/satellite-subsystems/demo/../..//hal/hal/lib\libHALD.a(LED.o)
 .debug_line    0x0000635a      0x3d7 D:/Internship 2018/OBC Projects/SecondProject/satellite-subsystems/demo/../..//hal/hal/lib\libHALD.a(SPI.o)
 .debug_line    0x00006731       0xe3 D:/Internship 2018/OBC Projects/SecondProject/satellite-subsystems/demo/../..//hal/hal/lib\libHALD.a(WatchDogTimerNoOS.o)
 .debug_line    0x00006814      0x147 D:/Internship 2018/OBC Projects/SecondProject/satellite-subsystems/demo/../..//hal/hal/lib\libHALD.a(WatchDogTimerOS.o)
 .debug_line    0x0000695b      0x1e1 D:/Internship 2018/OBC Projects/SecondProject/satellite-subsystems/demo/../..//hal/hal/lib\libHALD.a(util.o)
 .debug_line    0x00006b3c       0x36 D:/Internship 2018/OBC Projects/SecondProject/satellite-subsystems/demo/../..//hal/hal/lib\libHALD.a(version.o)
 .debug_line    0x00006b72      0x5ae D:/Internship 2018/OBC Projects/SecondProject/satellite-subsystems/demo/../..//hal/freertos/lib\libFreeRTOSD.a(queue.o)
 .debug_line    0x00007120      0x82a D:/Internship 2018/OBC Projects/SecondProject/satellite-subsystems/demo/../..//hal/freertos/lib\libFreeRTOSD.a(tasks.o)
 .debug_line    0x0000794a       0x77 D:/Internship 2018/OBC Projects/SecondProject/satellite-subsystems/demo/../..//hal/freertos/lib\libFreeRTOSD.a(hooks.o)
 .debug_line    0x000079c1       0xf9 D:/Internship 2018/OBC Projects/SecondProject/satellite-subsystems/demo/../..//hal/freertos/lib\libFreeRTOSD.a(standardMemMang.o)
 .debug_line    0x00007aba      0x1ea D:/Internship 2018/OBC Projects/SecondProject/satellite-subsystems/demo/../..//hal/freertos/lib\libFreeRTOSD.a(port.o)
 .debug_line    0x00007ca4      0x10e D:/Internship 2018/OBC Projects/SecondProject/satellite-subsystems/demo/../..//hal/freertos/lib\libFreeRTOSD.a(list.o)
 .debug_line    0x00007db2      0x356 D:/Internship 2018/OBC Projects/SecondProject/satellite-subsystems/demo/../..//hal/at91/lib\libAt91D.a(syscalls.o)
 .debug_line    0x00008108       0xb2 D:/Internship 2018/OBC Projects/SecondProject/satellite-subsystems/demo/../..//hal/at91/lib\libAt91D.a(aic.o)
 .debug_line    0x000081ba      0x101 D:/Internship 2018/OBC Projects/SecondProject/satellite-subsystems/demo/../..//hal/at91/lib\libAt91D.a(cp15.o)
 .debug_line    0x000082bb      0x2cc D:/Internship 2018/OBC Projects/SecondProject/satellite-subsystems/demo/../..//hal/at91/lib\libAt91D.a(dbgu.o)
 .debug_line    0x00008587      0x1b7 D:/Internship 2018/OBC Projects/SecondProject/satellite-subsystems/demo/../..//hal/at91/lib\libAt91D.a(pio.o)
 .debug_line    0x0000873e      0x136 D:/Internship 2018/OBC Projects/SecondProject/satellite-subsystems/demo/../..//hal/at91/lib\libAt91D.a(pit.o)
 .debug_line    0x00008874      0x145 D:/Internship 2018/OBC Projects/SecondProject/satellite-subsystems/demo/../..//hal/at91/lib\libAt91D.a(pmc.o)
 .debug_line    0x000089b9      0x14e D:/Internship 2018/OBC Projects/SecondProject/satellite-subsystems/demo/../..//hal/at91/lib\libAt91D.a(spi_at91.o)
 .debug_line    0x00008b07      0x2e9 D:/Internship 2018/OBC Projects/SecondProject/satellite-subsystems/demo/../..//hal/at91/lib\libAt91D.a(twi_at91.o)
 .debug_line    0x00008df0       0xda D:/Internship 2018/OBC Projects/SecondProject/satellite-subsystems/demo/../..//hal/at91/lib\libAt91D.a(ExitHandler.o)
 .debug_line    0x00008eca      0x109 D:/Internship 2018/OBC Projects/SecondProject/satellite-subsystems/demo/../..//hal/at91/lib\libAt91D.a(board_cstartup.o)
 .debug_line    0x00008fd3       0x6f D:/Internship 2018/OBC Projects/SecondProject/satellite-subsystems/demo/../..//hal/at91/lib\libAt91D.a(cp15_asm.o)
 .debug_line    0x00009042      0x122 D:/Internship 2018/OBC Projects/SecondProject/satellite-subsystems/demo/../..//hal/at91/lib\libAt91D.a(board_lowlevel.o)
 .debug_line    0x00009164      0x140 D:/Internship 2018/OBC Projects/SecondProject/satellite-subsystems/demo/../..//hal/at91/lib\libAt91D.a(board_memories.o)

.debug_str      0x00000000     0x7a54
 .debug_str     0x00000000      0x573 ./src/Demos/GomEPSdemo.o
                                0x63d (size before relaxing)
 .debug_str     0x00000573      0x2dd ./src/Demos/IsisAntSdemo.o
                                0x486 (size before relaxing)
 .debug_str     0x00000850      0x97e ./src/Demos/IsisEPSdemo.o
                                0xdec (size before relaxing)
 .debug_str     0x000011ce       0x5c ./src/Demos/IsisMTQv1demo.o
                                0x1ca (size before relaxing)
 .debug_str     0x0000122a      0x593 ./src/Demos/IsisMTQv2demo.o
                                0xbb5 (size before relaxing)
 .debug_str     0x000017bd       0xda ./src/Demos/IsisSPdemo.o
                                0x23d (size before relaxing)
 .debug_str     0x00001897      0x11f ./src/Demos/IsisSPv2demo.o
                                0x311 (size before relaxing)
 .debug_str     0x000019b6      0x345 ./src/Demos/IsisTRXUVdemo.o
                                0x552 (size before relaxing)
 .debug_str     0x00001cfb      0x2b5 ./src/Demos/IsisTRXVUdemo.o
                                0x5a0 (size before relaxing)
 .debug_str     0x00001fb0      0x3bb ./src/Demos/IsisTxSdemo.o
                                0x60b (size before relaxing)
 .debug_str     0x0000236b      0x17a ./src/Demos/common.o
                                0x402 (size before relaxing)
 .debug_str     0x000024e5      0x2e8 ./src/main.o
                                0x4bf (size before relaxing)
 .debug_str     0x000027cd      0x5dd D:/Internship 2018/OBC Projects/SecondProject/satellite-subsystems/demo/..//satellite-subsystems/lib\libSatelliteSubsystemsD.a(GomEPS.o)
                                0xafc (size before relaxing)
 .debug_str     0x00002daa      0x292 D:/Internship 2018/OBC Projects/SecondProject/satellite-subsystems/demo/..//satellite-subsystems/lib\libSatelliteSubsystemsD.a(IsisAntS.o)
                                0x6bd (size before relaxing)
 .debug_str     0x0000303c      0x4af D:/Internship 2018/OBC Projects/SecondProject/satellite-subsystems/demo/..//satellite-subsystems/lib\libSatelliteSubsystemsD.a(IsisEPS.o)
                                0xedb (size before relaxing)
 .debug_str     0x000034eb       0xd8 D:/Internship 2018/OBC Projects/SecondProject/satellite-subsystems/demo/..//satellite-subsystems/lib\libSatelliteSubsystemsD.a(IsisMTQv1.o)
                                0x300 (size before relaxing)
 .debug_str     0x000035c3      0x437 D:/Internship 2018/OBC Projects/SecondProject/satellite-subsystems/demo/..//satellite-subsystems/lib\libSatelliteSubsystemsD.a(IsisMTQv2.o)
                                0xcac (size before relaxing)
 .debug_str     0x000039fa      0x116 D:/Internship 2018/OBC Projects/SecondProject/satellite-subsystems/demo/..//satellite-subsystems/lib\libSatelliteSubsystemsD.a(IsisSolarPanel.o)
                                0x377 (size before relaxing)
 .debug_str     0x00003b10      0x2ee D:/Internship 2018/OBC Projects/SecondProject/satellite-subsystems/demo/..//satellite-subsystems/lib\libSatelliteSubsystemsD.a(IsisSolarPanelv2.o)
                                0x891 (size before relaxing)
 .debug_str     0x00003dfe      0x720 D:/Internship 2018/OBC Projects/SecondProject/satellite-subsystems/demo/..//satellite-subsystems/lib\libSatelliteSubsystemsD.a(IsisTRXUV.o)
                                0xbf4 (size before relaxing)
 .debug_str     0x0000451e      0x3bf D:/Internship 2018/OBC Projects/SecondProject/satellite-subsystems/demo/..//satellite-subsystems/lib\libSatelliteSubsystemsD.a(IsisTRXVU.o)
                                0x998 (size before relaxing)
 .debug_str     0x000048dd      0x24a D:/Internship 2018/OBC Projects/SecondProject/satellite-subsystems/demo/..//satellite-subsystems/lib\libSatelliteSubsystemsD.a(IsisTxS.o)
                                0x7f4 (size before relaxing)
 .debug_str     0x00004b27       0x16 D:/Internship 2018/OBC Projects/SecondProject/satellite-subsystems/demo/..//satellite-subsystems/lib\libSatelliteSubsystemsD.a(version.o)
                                0x168 (size before relaxing)
 .debug_str     0x00004b3d      0x1c9 D:/Internship 2018/OBC Projects/SecondProject/satellite-subsystems/demo/..//satellite-subsystems/lib\libSatelliteSubsystemsD.a(IsisTRXCommon.o)
                                0x411 (size before relaxing)
 .debug_str     0x00004d06      0x5f9 D:/Internship 2018/OBC Projects/SecondProject/satellite-subsystems/demo/../..//hal/hal/lib\libHALD.a(I2C.o)
                                0xa1c (size before relaxing)
 .debug_str     0x000052ff       0x72 D:/Internship 2018/OBC Projects/SecondProject/satellite-subsystems/demo/../..//hal/hal/lib\libHALD.a(LED.o)
                                0x31d (size before relaxing)
 .debug_str     0x00005371      0x369 D:/Internship 2018/OBC Projects/SecondProject/satellite-subsystems/demo/../..//hal/hal/lib\libHALD.a(SPI.o)
                                0x8be (size before relaxing)
 .debug_str     0x000056da       0x6b D:/Internship 2018/OBC Projects/SecondProject/satellite-subsystems/demo/../..//hal/hal/lib\libHALD.a(WatchDogTimerNoOS.o)
                                0x2f3 (size before relaxing)
 .debug_str     0x00005745       0xd2 D:/Internship 2018/OBC Projects/SecondProject/satellite-subsystems/demo/../..//hal/hal/lib\libHALD.a(WatchDogTimerOS.o)
                                0x22e (size before relaxing)
 .debug_str     0x00005817       0xc4 D:/Internship 2018/OBC Projects/SecondProject/satellite-subsystems/demo/../..//hal/hal/lib\libHALD.a(util.o)
                                0x1e2 (size before relaxing)
 .debug_str     0x00000000       0xf6 D:/Internship 2018/OBC Projects/SecondProject/satellite-subsystems/demo/../..//hal/hal/lib\libHALD.a(version.o)
 .debug_str     0x000058db      0x50b D:/Internship 2018/OBC Projects/SecondProject/satellite-subsystems/demo/../..//hal/freertos/lib\libFreeRTOSD.a(queue.o)
                                0x643 (size before relaxing)
 .debug_str     0x00005de6      0x734 D:/Internship 2018/OBC Projects/SecondProject/satellite-subsystems/demo/../..//hal/freertos/lib\libFreeRTOSD.a(tasks.o)
                                0x96e (size before relaxing)
 .debug_str     0x0000651a       0x3a D:/Internship 2018/OBC Projects/SecondProject/satellite-subsystems/demo/../..//hal/freertos/lib\libFreeRTOSD.a(hooks.o)
                                0x17e (size before relaxing)
 .debug_str     0x00006554       0x6f D:/Internship 2018/OBC Projects/SecondProject/satellite-subsystems/demo/../..//hal/freertos/lib\libFreeRTOSD.a(standardMemMang.o)
                                0x18e (size before relaxing)
 .debug_str     0x000065c3      0x155 D:/Internship 2018/OBC Projects/SecondProject/satellite-subsystems/demo/../..//hal/freertos/lib\libFreeRTOSD.a(port.o)
                                0x2f6 (size before relaxing)
 .debug_str     0x00006718       0xa1 D:/Internship 2018/OBC Projects/SecondProject/satellite-subsystems/demo/../..//hal/freertos/lib\libFreeRTOSD.a(list.o)
                                0x257 (size before relaxing)
 .debug_str     0x000067b9      0x1db D:/Internship 2018/OBC Projects/SecondProject/satellite-subsystems/demo/../..//hal/at91/lib\libAt91D.a(syscalls.o)
                                0x30e (size before relaxing)
 .debug_str     0x00006994      0x104 D:/Internship 2018/OBC Projects/SecondProject/satellite-subsystems/demo/../..//hal/at91/lib\libAt91D.a(aic.o)
                                0x1be (size before relaxing)
 .debug_str     0x00006a98       0xd5 D:/Internship 2018/OBC Projects/SecondProject/satellite-subsystems/demo/../..//hal/at91/lib\libAt91D.a(cp15.o)
                                0x1e9 (size before relaxing)
 .debug_str     0x00006b6d      0x4db D:/Internship 2018/OBC Projects/SecondProject/satellite-subsystems/demo/../..//hal/at91/lib\libAt91D.a(dbgu.o)
                                0x65a (size before relaxing)
 .debug_str     0x00007048       0xde D:/Internship 2018/OBC Projects/SecondProject/satellite-subsystems/demo/../..//hal/at91/lib\libAt91D.a(pio.o)
                                0x408 (size before relaxing)
 .debug_str     0x00007126       0x9b D:/Internship 2018/OBC Projects/SecondProject/satellite-subsystems/demo/../..//hal/at91/lib\libAt91D.a(pit.o)
                                0x17c (size before relaxing)
 .debug_str     0x000071c1       0xcf D:/Internship 2018/OBC Projects/SecondProject/satellite-subsystems/demo/../..//hal/at91/lib\libAt91D.a(pmc.o)
                                0x2ac (size before relaxing)
 .debug_str     0x00007290       0xaf D:/Internship 2018/OBC Projects/SecondProject/satellite-subsystems/demo/../..//hal/at91/lib\libAt91D.a(spi_at91.o)
                                0x2f4 (size before relaxing)
 .debug_str     0x0000733f      0x161 D:/Internship 2018/OBC Projects/SecondProject/satellite-subsystems/demo/../..//hal/at91/lib\libAt91D.a(twi_at91.o)
                                0x3b0 (size before relaxing)
 .debug_str     0x000074a0      0x127 D:/Internship 2018/OBC Projects/SecondProject/satellite-subsystems/demo/../..//hal/at91/lib\libAt91D.a(ExitHandler.o)
                                0x24e (size before relaxing)
 .debug_str     0x000075c7      0x27d D:/Internship 2018/OBC Projects/SecondProject/satellite-subsystems/demo/../..//hal/at91/lib\libAt91D.a(board_lowlevel.o)
                                0x4c6 (size before relaxing)
 .debug_str     0x00007844      0x210 D:/Internship 2018/OBC Projects/SecondProject/satellite-subsystems/demo/../..//hal/at91/lib\libAt91D.a(board_memories.o)
                                0x641 (size before relaxing)
